
main.o:     file format elf32-littleriscv


Disassembly of section .text:

80000074 <main>:
80000074:	fa010113          	addi	sp,sp,-96
80000078:	04112e23          	sw	ra,92(sp)
8000007c:	04812c23          	sw	s0,88(sp)
80000080:	04912a23          	sw	s1,84(sp)
80000084:	05212823          	sw	s2,80(sp)
80000088:	05312623          	sw	s3,76(sp)
8000008c:	05412423          	sw	s4,72(sp)
80000090:	05512223          	sw	s5,68(sp)
80000094:	05612023          	sw	s6,64(sp)
80000098:	03712e23          	sw	s7,60(sp)
8000009c:	03812c23          	sw	s8,56(sp)
800000a0:	03912a23          	sw	s9,52(sp)
800000a4:	03a12823          	sw	s10,48(sp)
800000a8:	03b12623          	sw	s11,44(sp)
800000ac:	00001537          	lui	a0,0x1
800000b0:	a0050513          	addi	a0,a0,-1536 # a00 <main-0x7ffff674>
800000b4:	30451073          	csrw	mie,a0
800000b8:	30002573          	csrr	a0,mstatus
800000bc:	00856513          	ori	a0,a0,8
800000c0:	30051073          	csrw	mstatus,a0
800000c4:	c0000537          	lui	a0,0xc0000
800000c8:	06052583          	lw	a1,96(a0) # c0000060 <_end+0xff975548>
800000cc:	06452603          	lw	a2,100(a0)
800000d0:	00459593          	slli	a1,a1,0x4
800000d4:	00c585b3          	add	a1,a1,a2
800000d8:	00008637          	lui	a2,0x8
800000dc:	e0060613          	addi	a2,a2,-512 # 7e00 <main-0x7fff8274>
800000e0:	00c585b3          	add	a1,a1,a2
800000e4:	01059113          	slli	sp,a1,0x10
800000e8:	c00011b7          	lui	gp,0xc0001
800000ec:	80018193          	addi	gp,gp,-2048 # c0000800 <_end+0xff975ce8>
800000f0:	01402783          	lw	a5,20(zero) # 14 <main-0x80000060>
800000f4:	c0633d37          	lui	s10,0xc0633
800000f8:	00279793          	slli	a5,a5,0x2
800000fc:	c2f1aa23          	sw	a5,-972(gp) # c0000434 <debug>
80000100:	0007a023          	sw	zero,0(a5)
80000104:	c0633cb7          	lui	s9,0xc0633
80000108:	cd4d0793          	addi	a5,s10,-812 # c0632cd4 <_end+0xfffa81bc>
8000010c:	00f12a23          	sw	a5,20(sp)
80000110:	184c8793          	addi	a5,s9,388 # c0633184 <_end+0xfffa866c>
80000114:	c068bc37          	lui	s8,0xc068b
80000118:	00f12623          	sw	a5,12(sp)
8000011c:	c4818793          	addi	a5,gp,-952 # c0000448 <start>
80000120:	00f12c23          	sw	a5,24(sp)
80000124:	cd4c0793          	addi	a5,s8,-812 # c068acd4 <_end+0x1bc>
80000128:	00f12e23          	sw	a5,28(sp)
8000012c:	c05db7b7          	lui	a5,0xc05db
80000130:	e9478793          	addi	a5,a5,-364 # c05dae94 <_end+0xfff5037c>
80000134:	c0000a37          	lui	s4,0xc0000
80000138:	c0000cb7          	lui	s9,0xc0000
8000013c:	00f12823          	sw	a5,16(sp)
80000140:	47ca0793          	addi	a5,s4,1148 # c000047c <_end+0xff975964>
80000144:	00f12423          	sw	a5,8(sp)
80000148:	000ca783          	lw	a5,0(s9) # c0000000 <_end+0xff9754e8>
8000014c:	004ca783          	lw	a5,4(s9)
80000150:	008cad03          	lw	s10,8(s9)
80000154:	100ca503          	lw	a0,256(s9)
80000158:	104ca583          	lw	a1,260(s9)
8000015c:	108ca603          	lw	a2,264(s9)
80000160:	c068b437          	lui	s0,0xc068b
80000164:	c00054b7          	lui	s1,0xc0005
80000168:	c0000ab7          	lui	s5,0xc0000
8000016c:	00100c13          	li	s8,1
80000170:	fc440413          	addi	s0,s0,-60 # c068afc4 <_end+0x4ac>
80000174:	c4018993          	addi	s3,gp,-960 # c0000440 <goal>
80000178:	c5448493          	addi	s1,s1,-940 # c0004c54 <_end+0xff97a13c>
8000017c:	474a8a93          	addi	s5,s5,1140 # c0000474 <_end+0xff97595c>
80000180:	038d0863          	beq	s10,s8,800001b0 <main+0x13c>
80000184:	00200793          	li	a5,2
80000188:	14fd0263          	beq	s10,a5,800002cc <main+0x258>
8000018c:	060d0663          	beqz	s10,800001f8 <main+0x184>
80000190:	020ca023          	sw	zero,32(s9)
80000194:	000ca783          	lw	a5,0(s9)
80000198:	004ca783          	lw	a5,4(s9)
8000019c:	008cad03          	lw	s10,8(s9)
800001a0:	100ca503          	lw	a0,256(s9)
800001a4:	104ca583          	lw	a1,260(s9)
800001a8:	108ca603          	lw	a2,264(s9)
800001ac:	fd8d1ce3          	bne	s10,s8,80000184 <main+0x110>
800001b0:	c3c1a783          	lw	a5,-964(gp) # c000043c <done>
800001b4:	fd878ee3          	beq	a5,s8,80000190 <main+0x11c>
800001b8:	0009a703          	lw	a4,0(s3)
800001bc:	16e50a63          	beq	a0,a4,80000330 <main+0x2bc>
800001c0:	00251793          	slli	a5,a0,0x2
800001c4:	00a78733          	add	a4,a5,a0
800001c8:	00471793          	slli	a5,a4,0x4
800001cc:	40e787b3          	sub	a5,a5,a4
800001d0:	00279793          	slli	a5,a5,0x2
800001d4:	01012703          	lw	a4,16(sp)
800001d8:	00b787b3          	add	a5,a5,a1
800001dc:	00279793          	slli	a5,a5,0x2
800001e0:	00f707b3          	add	a5,a4,a5
800001e4:	0007a783          	lw	a5,0(a5)
800001e8:	fa0794e3          	bnez	a5,80000190 <main+0x11c>
800001ec:	2b8000ef          	jal	ra,800004a4 <_Z9lls_startjjjjj.part.0>
800001f0:	020ca023          	sw	zero,32(s9)
800001f4:	fa1ff06f          	j	80000194 <main+0x120>
800001f8:	00c12b83          	lw	s7,12(sp)
800001fc:	c201ac23          	sw	zero,-968(gp) # c0000438 <cnt>
80000200:	bdb4b7b7          	lui	a5,0xbdb4b
80000204:	00000d93          	li	s11,0
80000208:	e3c78b13          	addi	s6,a5,-452 # bdb4ae3c <_end+0xfd4c0324>
8000020c:	01300913          	li	s2,19
80000210:	b50b8a13          	addi	s4,s7,-1200
80000214:	000b0513          	mv	a0,s6
80000218:	06400593          	li	a1,100
8000021c:	6a9000ef          	jal	ra,800010c4 <__umodsi3>
80000220:	001b1793          	slli	a5,s6,0x1
80000224:	016787b3          	add	a5,a5,s6
80000228:	00479793          	slli	a5,a5,0x4
8000022c:	416787b3          	sub	a5,a5,s6
80000230:	00379793          	slli	a5,a5,0x3
80000234:	016787b3          	add	a5,a5,s6
80000238:	00379793          	slli	a5,a5,0x3
8000023c:	016787b3          	add	a5,a5,s6
80000240:	00479793          	slli	a5,a5,0x4
80000244:	00a96863          	bltu	s2,a0,80000254 <main+0x1e0>
80000248:	018a2023          	sw	s8,0(s4)
8000024c:	001d0d13          	addi	s10,s10,1
80000250:	00100d93          	li	s11,1
80000254:	004a0a13          	addi	s4,s4,4
80000258:	41678b33          	sub	s6,a5,s6
8000025c:	fb7a1ce3          	bne	s4,s7,80000214 <main+0x1a0>
80000260:	4b0a0b93          	addi	s7,s4,1200
80000264:	fa8b96e3          	bne	s7,s0,80000210 <main+0x19c>
80000268:	000d8463          	beqz	s11,80000270 <main+0x1fc>
8000026c:	c3a1ac23          	sw	s10,-968(gp) # c0000438 <cnt>
80000270:	01812703          	lw	a4,24(sp)
80000274:	01412683          	lw	a3,20(sp)
80000278:	12a00793          	li	a5,298
8000027c:	00f9a023          	sw	a5,0(s3)
80000280:	00072023          	sw	zero,0(a4)
80000284:	0006a023          	sw	zero,0(a3)
80000288:	0004a023          	sw	zero,0(s1)
8000028c:	100ca423          	sw	zero,264(s9)
80000290:	100ca223          	sw	zero,260(s9)
80000294:	100ca023          	sw	zero,256(s9)
80000298:	000ca223          	sw	zero,4(s9)
8000029c:	018ca423          	sw	s8,8(s9)
800002a0:	00f9a223          	sw	a5,4(s3)
800002a4:	01c12783          	lw	a5,28(sp)
800002a8:	00072223          	sw	zero,4(a4)
800002ac:	0004a823          	sw	zero,16(s1)
800002b0:	9807a423          	sw	zero,-1656(a5)
800002b4:	0004a223          	sw	zero,4(s1)
800002b8:	0004a423          	sw	zero,8(s1)
800002bc:	0004a623          	sw	zero,12(s1)
800002c0:	000ca023          	sw	zero,0(s9)
800002c4:	020ca023          	sw	zero,32(s9)
800002c8:	ecdff06f          	j	80000194 <main+0x120>
800002cc:	00160793          	addi	a5,a2,1
800002d0:	ec0780e3          	beqz	a5,80000190 <main+0x11c>
800002d4:	00aaa023          	sw	a0,0(s5)
800002d8:	00baa223          	sw	a1,4(s5)
800002dc:	eb878ae3          	beq	a5,s8,80000190 <main+0x11c>
800002e0:	00812783          	lw	a5,8(sp)
800002e4:	00361713          	slli	a4,a2,0x3
800002e8:	00078693          	mv	a3,a5
800002ec:	00f70733          	add	a4,a4,a5
800002f0:	00251793          	slli	a5,a0,0x2
800002f4:	00a78533          	add	a0,a5,a0
800002f8:	00451793          	slli	a5,a0,0x4
800002fc:	40a787b3          	sub	a5,a5,a0
80000300:	00279793          	slli	a5,a5,0x2
80000304:	00b787b3          	add	a5,a5,a1
80000308:	00679793          	slli	a5,a5,0x6
8000030c:	00f487b3          	add	a5,s1,a5
80000310:	0087a503          	lw	a0,8(a5)
80000314:	00c7a583          	lw	a1,12(a5)
80000318:	00868693          	addi	a3,a3,8
8000031c:	fea6ac23          	sw	a0,-8(a3)
80000320:	feb6ae23          	sw	a1,-4(a3)
80000324:	fce696e3          	bne	a3,a4,800002f0 <main+0x27c>
80000328:	020ca023          	sw	zero,32(s9)
8000032c:	e69ff06f          	j	80000194 <main+0x120>
80000330:	0049a703          	lw	a4,4(s3)
80000334:	e8e596e3          	bne	a1,a4,800001c0 <main+0x14c>
80000338:	c3c18693          	addi	a3,gp,-964 # c000043c <done>
8000033c:	02dca823          	sw	a3,48(s9)
80000340:	02fcaa23          	sw	a5,52(s9)
80000344:	c381ae23          	sw	s8,-964(gp) # c000043c <done>
80000348:	fff00793          	li	a5,-1
8000034c:	e6f60ae3          	beq	a2,a5,800001c0 <main+0x14c>
80000350:	00812783          	lw	a5,8(sp)
80000354:	00361713          	slli	a4,a2,0x3
80000358:	000a8693          	mv	a3,s5
8000035c:	00f70733          	add	a4,a4,a5
80000360:	00058e93          	mv	t4,a1
80000364:	00050813          	mv	a6,a0
80000368:	00281793          	slli	a5,a6,0x2
8000036c:	01078e33          	add	t3,a5,a6
80000370:	004e1793          	slli	a5,t3,0x4
80000374:	41c787b3          	sub	a5,a5,t3
80000378:	00279793          	slli	a5,a5,0x2
8000037c:	01d787b3          	add	a5,a5,t4
80000380:	00679793          	slli	a5,a5,0x6
80000384:	0106a023          	sw	a6,0(a3)
80000388:	01d6a223          	sw	t4,4(a3)
8000038c:	00f487b3          	add	a5,s1,a5
80000390:	00868693          	addi	a3,a3,8
80000394:	0087a803          	lw	a6,8(a5)
80000398:	00c7ae83          	lw	t4,12(a5)
8000039c:	fce696e3          	bne	a3,a4,80000368 <main+0x2f4>
800003a0:	e21ff06f          	j	800001c0 <main+0x14c>

800003a4 <register_fini>:
800003a4:	00000793          	li	a5,0
800003a8:	00078863          	beqz	a5,800003b8 <register_fini+0x14>
800003ac:	00001517          	auipc	a0,0x1
800003b0:	0a050513          	addi	a0,a0,160 # 8000144c <__libc_fini_array>
800003b4:	0f40106f          	j	800014a8 <atexit>
800003b8:	00008067          	ret

800003bc <exit>:
800003bc:	ff010113          	addi	sp,sp,-16
800003c0:	00000593          	li	a1,0
800003c4:	00812423          	sw	s0,8(sp)
800003c8:	00112623          	sw	ra,12(sp)
800003cc:	00050413          	mv	s0,a0
800003d0:	75d000ef          	jal	ra,8000132c <__call_exitprocs>
800003d4:	c281a503          	lw	a0,-984(gp) # c0000428 <_global_impure_ptr>
800003d8:	03c52783          	lw	a5,60(a0)
800003dc:	00078463          	beqz	a5,800003e4 <exit+0x28>
800003e0:	000780e7          	jalr	a5
800003e4:	00040513          	mv	a0,s0
800003e8:	16c010ef          	jal	ra,80001554 <_exit>

800003ec <_start>:
800003ec:	40000197          	auipc	gp,0x40000
800003f0:	41418193          	addi	gp,gp,1044 # c0000800 <__global_pointer$>
800003f4:	c3018513          	addi	a0,gp,-976 # c0000430 <completed.1>
800003f8:	4068a617          	auipc	a2,0x4068a
800003fc:	72060613          	addi	a2,a2,1824 # c068ab18 <_end>
80000400:	40a60633          	sub	a2,a2,a0
80000404:	00000593          	li	a1,0
80000408:	649000ef          	jal	ra,80001250 <memset>
8000040c:	00001517          	auipc	a0,0x1
80000410:	09c50513          	addi	a0,a0,156 # 800014a8 <atexit>
80000414:	00050863          	beqz	a0,80000424 <_start+0x38>
80000418:	00001517          	auipc	a0,0x1
8000041c:	03450513          	addi	a0,a0,52 # 8000144c <__libc_fini_array>
80000420:	088010ef          	jal	ra,800014a8 <atexit>
80000424:	599000ef          	jal	ra,800011bc <__libc_init_array>
80000428:	00012503          	lw	a0,0(sp)
8000042c:	00410593          	addi	a1,sp,4
80000430:	00000613          	li	a2,0
80000434:	c41ff0ef          	jal	ra,80000074 <main>
80000438:	f85ff06f          	j	800003bc <exit>

8000043c <__do_global_dtors_aux>:
8000043c:	ff010113          	addi	sp,sp,-16
80000440:	00812423          	sw	s0,8(sp)
80000444:	c3018413          	addi	s0,gp,-976 # c0000430 <completed.1>
80000448:	00044783          	lbu	a5,0(s0)
8000044c:	00112623          	sw	ra,12(sp)
80000450:	02079263          	bnez	a5,80000474 <__do_global_dtors_aux+0x38>
80000454:	00000793          	li	a5,0
80000458:	00078a63          	beqz	a5,8000046c <__do_global_dtors_aux+0x30>
8000045c:	00001517          	auipc	a0,0x1
80000460:	1fc50513          	addi	a0,a0,508 # 80001658 <__EH_FRAME_BEGIN__>
80000464:	00000097          	auipc	ra,0x0
80000468:	000000e7          	jalr	zero # 0 <main-0x80000074>
8000046c:	00100793          	li	a5,1
80000470:	00f40023          	sb	a5,0(s0)
80000474:	00c12083          	lw	ra,12(sp)
80000478:	00812403          	lw	s0,8(sp)
8000047c:	01010113          	addi	sp,sp,16
80000480:	00008067          	ret

80000484 <frame_dummy>:
80000484:	00000793          	li	a5,0
80000488:	00078c63          	beqz	a5,800004a0 <frame_dummy+0x1c>
8000048c:	c5c18593          	addi	a1,gp,-932 # c000045c <object.0>
80000490:	00001517          	auipc	a0,0x1
80000494:	1c850513          	addi	a0,a0,456 # 80001658 <__EH_FRAME_BEGIN__>
80000498:	00000317          	auipc	t1,0x0
8000049c:	00000067          	jr	zero # 0 <main-0x80000074>
800004a0:	00008067          	ret

800004a4 <_Z9lls_startjjjjj.part.0>:
800004a4:	00251893          	slli	a7,a0,0x2
800004a8:	00a88733          	add	a4,a7,a0
800004ac:	00471793          	slli	a5,a4,0x4
800004b0:	40e787b3          	sub	a5,a5,a4
800004b4:	00279793          	slli	a5,a5,0x2
800004b8:	00f58733          	add	a4,a1,a5
800004bc:	c05db6b7          	lui	a3,0xc05db
800004c0:	ff010113          	addi	sp,sp,-16
800004c4:	00271713          	slli	a4,a4,0x2
800004c8:	e9468693          	addi	a3,a3,-364 # c05dae94 <_end+0xfff5037c>
800004cc:	00812623          	sw	s0,12(sp)
800004d0:	c0000837          	lui	a6,0xc0000
800004d4:	00e68733          	add	a4,a3,a4
800004d8:	02e82823          	sw	a4,48(a6) # c0000030 <_end+0xff975518>
800004dc:	02082a23          	sw	zero,52(a6)
800004e0:	00150313          	addi	t1,a0,1
800004e4:	12b00713          	li	a4,299
800004e8:	38676063          	bltu	a4,t1,80000868 <_Z9lls_startjjjjj.part.0+0x3c4>
800004ec:	1cb77463          	bgeu	a4,a1,800006b4 <_Z9lls_startjjjjj.part.0+0x210>
800004f0:	12b00713          	li	a4,299
800004f4:	1aa76a63          	bltu	a4,a0,800006a8 <_Z9lls_startjjjjj.part.0+0x204>
800004f8:	00158313          	addi	t1,a1,1
800004fc:	0c676a63          	bltu	a4,t1,800005d0 <_Z9lls_startjjjjj.part.0+0x12c>
80000500:	00a88833          	add	a6,a7,a0
80000504:	00481713          	slli	a4,a6,0x4
80000508:	41070733          	sub	a4,a4,a6
8000050c:	00271713          	slli	a4,a4,0x2
80000510:	00670733          	add	a4,a4,t1
80000514:	c0633837          	lui	a6,0xc0633
80000518:	00271e13          	slli	t3,a4,0x2
8000051c:	cd480813          	addi	a6,a6,-812 # c0632cd4 <_end+0xfffa81bc>
80000520:	01c80833          	add	a6,a6,t3
80000524:	00082803          	lw	a6,0(a6)
80000528:	0a081463          	bnez	a6,800005d0 <_Z9lls_startjjjjj.part.0+0x12c>
8000052c:	c0583837          	lui	a6,0xc0583
80000530:	05480813          	addi	a6,a6,84 # c0583054 <_end+0xffef853c>
80000534:	01c80833          	add	a6,a6,t3
80000538:	00082e03          	lw	t3,0(a6)
8000053c:	080e1a63          	bnez	t3,800005d0 <_Z9lls_startjjjjj.part.0+0x12c>
80000540:	c4018e93          	addi	t4,gp,-960 # c0000440 <goal>
80000544:	000eae03          	lw	t3,0(t4)
80000548:	004eaf03          	lw	t5,4(t4)
8000054c:	c0005eb7          	lui	t4,0xc0005
80000550:	00671713          	slli	a4,a4,0x6
80000554:	c54e8e93          	addi	t4,t4,-940 # c0004c54 <_end+0xff97a13c>
80000558:	00ee8eb3          	add	t4,t4,a4
8000055c:	00100293          	li	t0,1
80000560:	00160713          	addi	a4,a2,1
80000564:	00582023          	sw	t0,0(a6)
80000568:	00070f93          	mv	t6,a4
8000056c:	006ea223          	sw	t1,4(t4)
80000570:	406f0833          	sub	a6,t5,t1
80000574:	00eea823          	sw	a4,16(t4)
80000578:	00aea023          	sw	a0,0(t4)
8000057c:	40ae0733          	sub	a4,t3,a0
80000580:	00aea423          	sw	a0,8(t4)
80000584:	00bea623          	sw	a1,12(t4)
80000588:	c0000eb7          	lui	t4,0xc0000
8000058c:	11fea423          	sw	t6,264(t4) # c0000108 <_end+0xff9755f0>
80000590:	41f75393          	srai	t2,a4,0x1f
80000594:	41f85f13          	srai	t5,a6,0x1f
80000598:	00f30e33          	add	t3,t1,a5
8000059c:	106ea223          	sw	t1,260(t4)
800005a0:	00e3c733          	xor	a4,t2,a4
800005a4:	002e1313          	slli	t1,t3,0x2
800005a8:	010f4833          	xor	a6,t5,a6
800005ac:	10aea023          	sw	a0,256(t4)
800005b0:	00668333          	add	t1,a3,t1
800005b4:	40770733          	sub	a4,a4,t2
800005b8:	41e80833          	sub	a6,a6,t5
800005bc:	006ea223          	sw	t1,4(t4)
800005c0:	01070733          	add	a4,a4,a6
800005c4:	005ea423          	sw	t0,8(t4)
800005c8:	01f70733          	add	a4,a4,t6
800005cc:	00eea023          	sw	a4,0(t4)
800005d0:	fff58313          	addi	t1,a1,-1
800005d4:	12b00713          	li	a4,299
800005d8:	0c676863          	bltu	a4,t1,800006a8 <_Z9lls_startjjjjj.part.0+0x204>
800005dc:	00a888b3          	add	a7,a7,a0
800005e0:	00489713          	slli	a4,a7,0x4
800005e4:	41170733          	sub	a4,a4,a7
800005e8:	00271713          	slli	a4,a4,0x2
800005ec:	00670733          	add	a4,a4,t1
800005f0:	c0633837          	lui	a6,0xc0633
800005f4:	00271893          	slli	a7,a4,0x2
800005f8:	cd480813          	addi	a6,a6,-812 # c0632cd4 <_end+0xfffa81bc>
800005fc:	01180833          	add	a6,a6,a7
80000600:	00082803          	lw	a6,0(a6)
80000604:	0a081263          	bnez	a6,800006a8 <_Z9lls_startjjjjj.part.0+0x204>
80000608:	c0583837          	lui	a6,0xc0583
8000060c:	05480813          	addi	a6,a6,84 # c0583054 <_end+0xffef853c>
80000610:	01180833          	add	a6,a6,a7
80000614:	00082883          	lw	a7,0(a6)
80000618:	08089863          	bnez	a7,800006a8 <_Z9lls_startjjjjj.part.0+0x204>
8000061c:	c4018e13          	addi	t3,gp,-960 # c0000440 <goal>
80000620:	000e2883          	lw	a7,0(t3)
80000624:	004e2e83          	lw	t4,4(t3)
80000628:	c0005e37          	lui	t3,0xc0005
8000062c:	c54e0e13          	addi	t3,t3,-940 # c0004c54 <_end+0xff97a13c>
80000630:	00671713          	slli	a4,a4,0x6
80000634:	00ee0733          	add	a4,t3,a4
80000638:	00160613          	addi	a2,a2,1
8000063c:	00100e13          	li	t3,1
80000640:	00c72823          	sw	a2,16(a4)
80000644:	00b72623          	sw	a1,12(a4)
80000648:	00a72023          	sw	a0,0(a4)
8000064c:	00672223          	sw	t1,4(a4)
80000650:	00a72423          	sw	a0,8(a4)
80000654:	01c82023          	sw	t3,0(a6)
80000658:	40a88733          	sub	a4,a7,a0
8000065c:	c0000837          	lui	a6,0xc0000
80000660:	406e85b3          	sub	a1,t4,t1
80000664:	10c82423          	sw	a2,264(a6) # c0000108 <_end+0xff9755f0>
80000668:	41f75f13          	srai	t5,a4,0x1f
8000066c:	41f5de93          	srai	t4,a1,0x1f
80000670:	00f308b3          	add	a7,t1,a5
80000674:	10682223          	sw	t1,260(a6)
80000678:	00289893          	slli	a7,a7,0x2
8000067c:	00ef47b3          	xor	a5,t5,a4
80000680:	00bec5b3          	xor	a1,t4,a1
80000684:	10a82023          	sw	a0,256(a6)
80000688:	011686b3          	add	a3,a3,a7
8000068c:	41e787b3          	sub	a5,a5,t5
80000690:	41d585b3          	sub	a1,a1,t4
80000694:	00d82223          	sw	a3,4(a6)
80000698:	00b787b3          	add	a5,a5,a1
8000069c:	01c82423          	sw	t3,8(a6)
800006a0:	00c78633          	add	a2,a5,a2
800006a4:	00c82023          	sw	a2,0(a6)
800006a8:	00c12403          	lw	s0,12(sp)
800006ac:	01010113          	addi	sp,sp,16
800006b0:	00008067          	ret
800006b4:	00231713          	slli	a4,t1,0x2
800006b8:	00670e33          	add	t3,a4,t1
800006bc:	004e1713          	slli	a4,t3,0x4
800006c0:	41c70733          	sub	a4,a4,t3
800006c4:	00271713          	slli	a4,a4,0x2
800006c8:	00b70733          	add	a4,a4,a1
800006cc:	c0633e37          	lui	t3,0xc0633
800006d0:	cd4e0e13          	addi	t3,t3,-812 # c0632cd4 <_end+0xfffa81bc>
800006d4:	00271f13          	slli	t5,a4,0x2
800006d8:	01ee0eb3          	add	t4,t3,t5
800006dc:	000eae83          	lw	t4,0(t4)
800006e0:	0a0e9463          	bnez	t4,80000788 <_Z9lls_startjjjjj.part.0+0x2e4>
800006e4:	c0583eb7          	lui	t4,0xc0583
800006e8:	054e8e93          	addi	t4,t4,84 # c0583054 <_end+0xffef853c>
800006ec:	01ee8eb3          	add	t4,t4,t5
800006f0:	000eaf03          	lw	t5,0(t4)
800006f4:	080f1a63          	bnez	t5,80000788 <_Z9lls_startjjjjj.part.0+0x2e4>
800006f8:	c4018f93          	addi	t6,gp,-960 # c0000440 <goal>
800006fc:	000faf03          	lw	t5,0(t6)
80000700:	004fa283          	lw	t0,4(t6)
80000704:	c0005fb7          	lui	t6,0xc0005
80000708:	00671713          	slli	a4,a4,0x6
8000070c:	c54f8f93          	addi	t6,t6,-940 # c0004c54 <_end+0xff97a13c>
80000710:	00ef8fb3          	add	t6,t6,a4
80000714:	00100413          	li	s0,1
80000718:	00160713          	addi	a4,a2,1
8000071c:	00efa823          	sw	a4,16(t6)
80000720:	006fa023          	sw	t1,0(t6)
80000724:	00bfa223          	sw	a1,4(t6)
80000728:	00afa423          	sw	a0,8(t6)
8000072c:	00bfa623          	sw	a1,12(t6)
80000730:	008ea023          	sw	s0,0(t4)
80000734:	00070393          	mv	t2,a4
80000738:	12c78e93          	addi	t4,a5,300
8000073c:	406f0733          	sub	a4,t5,t1
80000740:	40b28f33          	sub	t5,t0,a1
80000744:	10782423          	sw	t2,264(a6)
80000748:	41f75293          	srai	t0,a4,0x1f
8000074c:	41ff5f93          	srai	t6,t5,0x1f
80000750:	00be8eb3          	add	t4,t4,a1
80000754:	10b82223          	sw	a1,260(a6)
80000758:	002e9e93          	slli	t4,t4,0x2
8000075c:	00e2c733          	xor	a4,t0,a4
80000760:	01efcf33          	xor	t5,t6,t5
80000764:	10682023          	sw	t1,256(a6)
80000768:	40570733          	sub	a4,a4,t0
8000076c:	01d68333          	add	t1,a3,t4
80000770:	41ff0f33          	sub	t5,t5,t6
80000774:	00682223          	sw	t1,4(a6)
80000778:	01e70733          	add	a4,a4,t5
8000077c:	00882423          	sw	s0,8(a6)
80000780:	00770733          	add	a4,a4,t2
80000784:	00e82023          	sw	a4,0(a6)
80000788:	fff50813          	addi	a6,a0,-1
8000078c:	12b00713          	li	a4,299
80000790:	ed478e93          	addi	t4,a5,-300
80000794:	d5076ee3          	bltu	a4,a6,800004f0 <_Z9lls_startjjjjj.part.0+0x4c>
80000798:	00281713          	slli	a4,a6,0x2
8000079c:	01070333          	add	t1,a4,a6
800007a0:	00431713          	slli	a4,t1,0x4
800007a4:	40670733          	sub	a4,a4,t1
800007a8:	00271713          	slli	a4,a4,0x2
800007ac:	00b70733          	add	a4,a4,a1
800007b0:	00271f13          	slli	t5,a4,0x2
800007b4:	01ee0e33          	add	t3,t3,t5
800007b8:	000e2303          	lw	t1,0(t3)
800007bc:	d2031ae3          	bnez	t1,800004f0 <_Z9lls_startjjjjj.part.0+0x4c>
800007c0:	c0583337          	lui	t1,0xc0583
800007c4:	05430313          	addi	t1,t1,84 # c0583054 <_end+0xffef853c>
800007c8:	01e30333          	add	t1,t1,t5
800007cc:	00032e03          	lw	t3,0(t1)
800007d0:	d20e10e3          	bnez	t3,800004f0 <_Z9lls_startjjjjj.part.0+0x4c>
800007d4:	c4018f13          	addi	t5,gp,-960 # c0000440 <goal>
800007d8:	000f2e03          	lw	t3,0(t5)
800007dc:	004f2f83          	lw	t6,4(t5)
800007e0:	c0005f37          	lui	t5,0xc0005
800007e4:	00671713          	slli	a4,a4,0x6
800007e8:	c54f0f13          	addi	t5,t5,-940 # c0004c54 <_end+0xff97a13c>
800007ec:	00ef0f33          	add	t5,t5,a4
800007f0:	00100393          	li	t2,1
800007f4:	00160713          	addi	a4,a2,1
800007f8:	00732023          	sw	t2,0(t1)
800007fc:	00070293          	mv	t0,a4
80000800:	010f2023          	sw	a6,0(t5)
80000804:	40bf8333          	sub	t1,t6,a1
80000808:	00ef2823          	sw	a4,16(t5)
8000080c:	00bf2223          	sw	a1,4(t5)
80000810:	410e0733          	sub	a4,t3,a6
80000814:	00af2423          	sw	a0,8(t5)
80000818:	00bf2623          	sw	a1,12(t5)
8000081c:	c0000f37          	lui	t5,0xc0000
80000820:	105f2423          	sw	t0,264(t5) # c0000108 <_end+0xff9755f0>
80000824:	41f75f93          	srai	t6,a4,0x1f
80000828:	41f35e13          	srai	t3,t1,0x1f
8000082c:	01d58eb3          	add	t4,a1,t4
80000830:	10bf2223          	sw	a1,260(t5)
80000834:	002e9e93          	slli	t4,t4,0x2
80000838:	00efc733          	xor	a4,t6,a4
8000083c:	006e4333          	xor	t1,t3,t1
80000840:	110f2023          	sw	a6,256(t5)
80000844:	41f70733          	sub	a4,a4,t6
80000848:	01d68833          	add	a6,a3,t4
8000084c:	41c30333          	sub	t1,t1,t3
80000850:	010f2223          	sw	a6,4(t5)
80000854:	00670733          	add	a4,a4,t1
80000858:	007f2423          	sw	t2,8(t5)
8000085c:	00570733          	add	a4,a4,t0
80000860:	00ef2023          	sw	a4,0(t5)
80000864:	c8dff06f          	j	800004f0 <_Z9lls_startjjjjj.part.0+0x4c>
80000868:	fff50813          	addi	a6,a0,-1
8000086c:	c90762e3          	bltu	a4,a6,800004f0 <_Z9lls_startjjjjj.part.0+0x4c>
80000870:	c8b760e3          	bltu	a4,a1,800004f0 <_Z9lls_startjjjjj.part.0+0x4c>
80000874:	c0633e37          	lui	t3,0xc0633
80000878:	ed478e93          	addi	t4,a5,-300
8000087c:	cd4e0e13          	addi	t3,t3,-812 # c0632cd4 <_end+0xfffa81bc>
80000880:	f19ff06f          	j	80000798 <_Z9lls_startjjjjj.part.0+0x2f4>

80000884 <_Z11finish_taskv>:
80000884:	c00007b7          	lui	a5,0xc0000
80000888:	0207a023          	sw	zero,32(a5) # c0000020 <_end+0xff975508>
8000088c:	00008067          	ret

80000890 <_Z12set_cd_rangePjS_>:
80000890:	c00007b7          	lui	a5,0xc0000
80000894:	06a7a823          	sw	a0,112(a5) # c0000070 <_end+0xff975558>
80000898:	06b7aa23          	sw	a1,116(a5)
8000089c:	00008067          	ret

800008a0 <_Z14undo_log_writePjj>:
800008a0:	c00007b7          	lui	a5,0xc0000
800008a4:	02a7a823          	sw	a0,48(a5) # c0000030 <_end+0xff975518>
800008a8:	02b7aa23          	sw	a1,52(a5)
800008ac:	00008067          	ret

800008b0 <_Z13enq_task_arg0jjj>:
800008b0:	c00007b7          	lui	a5,0xc0000
800008b4:	00c7a223          	sw	a2,4(a5) # c0000004 <_end+0xff9754ec>
800008b8:	00a7a423          	sw	a0,8(a5)
800008bc:	00b7a023          	sw	a1,0(a5)
800008c0:	00008067          	ret

800008c4 <_Z13enq_task_arg1jjjj>:
800008c4:	c00007b7          	lui	a5,0xc0000
800008c8:	10d7a023          	sw	a3,256(a5) # c0000100 <_end+0xff9755e8>
800008cc:	00c7a223          	sw	a2,4(a5)
800008d0:	00a7a423          	sw	a0,8(a5)
800008d4:	00b7a023          	sw	a1,0(a5)
800008d8:	00008067          	ret

800008dc <_Z13enq_task_arg2jjjjj>:
800008dc:	c00007b7          	lui	a5,0xc0000
800008e0:	10e7a223          	sw	a4,260(a5) # c0000104 <_end+0xff9755ec>
800008e4:	10d7a023          	sw	a3,256(a5)
800008e8:	00c7a223          	sw	a2,4(a5)
800008ec:	00a7a423          	sw	a0,8(a5)
800008f0:	00b7a023          	sw	a1,0(a5)
800008f4:	00008067          	ret

800008f8 <_Z13enq_task_arg3jjjjjj>:
800008f8:	c0000837          	lui	a6,0xc0000
800008fc:	10f82423          	sw	a5,264(a6) # c0000108 <_end+0xff9755f0>
80000900:	10e82223          	sw	a4,260(a6)
80000904:	10d82023          	sw	a3,256(a6)
80000908:	00c82223          	sw	a2,4(a6)
8000090c:	00a82423          	sw	a0,8(a6)
80000910:	00b82023          	sw	a1,0(a6)
80000914:	00008067          	ret

80000918 <_Z13enq_task_arg4jjjjjjj>:
80000918:	c00008b7          	lui	a7,0xc0000
8000091c:	1108a623          	sw	a6,268(a7) # c000010c <_end+0xff9755f4>
80000920:	10f8a423          	sw	a5,264(a7)
80000924:	10e8a223          	sw	a4,260(a7)
80000928:	10d8a023          	sw	a3,256(a7)
8000092c:	00c8a223          	sw	a2,4(a7)
80000930:	00a8a423          	sw	a0,8(a7)
80000934:	00b8a023          	sw	a1,0(a7)
80000938:	00008067          	ret

8000093c <_Z13enq_task_arg5jjjjjjjj>:
8000093c:	c0000337          	lui	t1,0xc0000
80000940:	11132823          	sw	a7,272(t1) # c0000110 <_end+0xff9755f8>
80000944:	11032623          	sw	a6,268(t1)
80000948:	10f32423          	sw	a5,264(t1)
8000094c:	10e32223          	sw	a4,260(t1)
80000950:	10d32023          	sw	a3,256(t1)
80000954:	00c32223          	sw	a2,4(t1)
80000958:	00a32423          	sw	a0,8(t1)
8000095c:	00b32023          	sw	a1,0(t1)
80000960:	00008067          	ret

80000964 <_Z13deq_task_arg0PjS_S_>:
80000964:	c00007b7          	lui	a5,0xc0000
80000968:	0007a703          	lw	a4,0(a5) # c0000000 <_end+0xff9754e8>
8000096c:	00e5a023          	sw	a4,0(a1)
80000970:	0047a703          	lw	a4,4(a5)
80000974:	00e62023          	sw	a4,0(a2)
80000978:	0087a783          	lw	a5,8(a5)
8000097c:	00f52023          	sw	a5,0(a0)
80000980:	00008067          	ret

80000984 <_Z13deq_task_arg1PjS_S_S_>:
80000984:	c00007b7          	lui	a5,0xc0000
80000988:	0007a703          	lw	a4,0(a5) # c0000000 <_end+0xff9754e8>
8000098c:	00e5a023          	sw	a4,0(a1)
80000990:	0047a703          	lw	a4,4(a5)
80000994:	00e62023          	sw	a4,0(a2)
80000998:	0087a703          	lw	a4,8(a5)
8000099c:	00e52023          	sw	a4,0(a0)
800009a0:	1007a783          	lw	a5,256(a5)
800009a4:	00f6a023          	sw	a5,0(a3)
800009a8:	00008067          	ret

800009ac <_Z13deq_task_arg2PjS_S_S_S_>:
800009ac:	c00007b7          	lui	a5,0xc0000
800009b0:	0007a803          	lw	a6,0(a5) # c0000000 <_end+0xff9754e8>
800009b4:	0105a023          	sw	a6,0(a1)
800009b8:	0047a583          	lw	a1,4(a5)
800009bc:	00b62023          	sw	a1,0(a2)
800009c0:	0087a603          	lw	a2,8(a5)
800009c4:	00c52023          	sw	a2,0(a0)
800009c8:	1007a603          	lw	a2,256(a5)
800009cc:	00c6a023          	sw	a2,0(a3)
800009d0:	1047a783          	lw	a5,260(a5)
800009d4:	00f72023          	sw	a5,0(a4)
800009d8:	00008067          	ret

800009dc <_Z13deq_task_arg3PjS_S_S_S_S_>:
800009dc:	c0000837          	lui	a6,0xc0000
800009e0:	00082883          	lw	a7,0(a6) # c0000000 <_end+0xff9754e8>
800009e4:	0115a023          	sw	a7,0(a1)
800009e8:	00482583          	lw	a1,4(a6)
800009ec:	00b62023          	sw	a1,0(a2)
800009f0:	00882603          	lw	a2,8(a6)
800009f4:	00c52023          	sw	a2,0(a0)
800009f8:	10082603          	lw	a2,256(a6)
800009fc:	00c6a023          	sw	a2,0(a3)
80000a00:	10482683          	lw	a3,260(a6)
80000a04:	00d72023          	sw	a3,0(a4)
80000a08:	10882703          	lw	a4,264(a6)
80000a0c:	00e7a023          	sw	a4,0(a5)
80000a10:	00008067          	ret

80000a14 <_Z13deq_task_arg4PjS_S_S_S_S_S_>:
80000a14:	c00008b7          	lui	a7,0xc0000
80000a18:	0008a303          	lw	t1,0(a7) # c0000000 <_end+0xff9754e8>
80000a1c:	0065a023          	sw	t1,0(a1)
80000a20:	0048a583          	lw	a1,4(a7)
80000a24:	00b62023          	sw	a1,0(a2)
80000a28:	0088a603          	lw	a2,8(a7)
80000a2c:	00c52023          	sw	a2,0(a0)
80000a30:	1008a603          	lw	a2,256(a7)
80000a34:	00c6a023          	sw	a2,0(a3)
80000a38:	1048a683          	lw	a3,260(a7)
80000a3c:	00d72023          	sw	a3,0(a4)
80000a40:	1088a703          	lw	a4,264(a7)
80000a44:	00e7a023          	sw	a4,0(a5)
80000a48:	10c8a783          	lw	a5,268(a7)
80000a4c:	00f82023          	sw	a5,0(a6)
80000a50:	00008067          	ret

80000a54 <_Z13deq_task_arg5PjS_S_S_S_S_S_S_>:
80000a54:	c0000337          	lui	t1,0xc0000
80000a58:	00032e03          	lw	t3,0(t1) # c0000000 <_end+0xff9754e8>
80000a5c:	01c5a023          	sw	t3,0(a1)
80000a60:	00432583          	lw	a1,4(t1)
80000a64:	00b62023          	sw	a1,0(a2)
80000a68:	00832603          	lw	a2,8(t1)
80000a6c:	00c52023          	sw	a2,0(a0)
80000a70:	10032603          	lw	a2,256(t1)
80000a74:	00c6a023          	sw	a2,0(a3)
80000a78:	10432683          	lw	a3,260(t1)
80000a7c:	00d72023          	sw	a3,0(a4)
80000a80:	10832703          	lw	a4,264(t1)
80000a84:	00e7a023          	sw	a4,0(a5)
80000a88:	10c32783          	lw	a5,268(t1)
80000a8c:	00f82023          	sw	a5,0(a6)
80000a90:	11032783          	lw	a5,272(t1)
80000a94:	00f8a023          	sw	a5,0(a7)
80000a98:	00008067          	ret

80000a9c <_Z8deq_taskPjS_S_S_S_>:
80000a9c:	c00007b7          	lui	a5,0xc0000
80000aa0:	0007a803          	lw	a6,0(a5) # c0000000 <_end+0xff9754e8>
80000aa4:	0105a023          	sw	a6,0(a1)
80000aa8:	0047a583          	lw	a1,4(a5)
80000aac:	00b62023          	sw	a1,0(a2)
80000ab0:	0087a603          	lw	a2,8(a5)
80000ab4:	00c52023          	sw	a2,0(a0)
80000ab8:	1007a603          	lw	a2,256(a5)
80000abc:	00c6a023          	sw	a2,0(a3)
80000ac0:	1047a783          	lw	a5,260(a5)
80000ac4:	00f72023          	sw	a5,0(a4)
80000ac8:	00008067          	ret

80000acc <_Z4exiti>:
80000acc:	00008067          	ret

80000ad0 <_Z5sqrt7f>:
80000ad0:	3f8007b7          	lui	a5,0x3f800
80000ad4:	00a78533          	add	a0,a5,a0
80000ad8:	00155513          	srli	a0,a0,0x1
80000adc:	00008067          	ret

80000ae0 <_Z9eucl_dist5state>:
80000ae0:	c4018713          	addi	a4,gp,-960 # c0000440 <goal>
80000ae4:	00072783          	lw	a5,0(a4)
80000ae8:	fe010113          	addi	sp,sp,-32
80000aec:	00912a23          	sw	s1,20(sp)
80000af0:	00472483          	lw	s1,4(a4)
80000af4:	40a78533          	sub	a0,a5,a0
80000af8:	00058793          	mv	a5,a1
80000afc:	00050593          	mv	a1,a0
80000b00:	00112e23          	sw	ra,28(sp)
80000b04:	00812c23          	sw	s0,24(sp)
80000b08:	40f484b3          	sub	s1,s1,a5
80000b0c:	544000ef          	jal	ra,80001050 <__mulsi3>
80000b10:	00048593          	mv	a1,s1
80000b14:	00050413          	mv	s0,a0
80000b18:	00048513          	mv	a0,s1
80000b1c:	534000ef          	jal	ra,80001050 <__mulsi3>
80000b20:	00a40533          	add	a0,s0,a0
80000b24:	400000ef          	jal	ra,80000f24 <__floatunsisf>
80000b28:	3f8007b7          	lui	a5,0x3f800
80000b2c:	00a78533          	add	a0,a5,a0
80000b30:	00155513          	srli	a0,a0,0x1
80000b34:	384000ef          	jal	ra,80000eb8 <__fixunssfsi>
80000b38:	01c12083          	lw	ra,28(sp)
80000b3c:	01812403          	lw	s0,24(sp)
80000b40:	01412483          	lw	s1,20(sp)
80000b44:	02010113          	addi	sp,sp,32
80000b48:	00008067          	ret

80000b4c <_Z17is_valid_neighborjj>:
80000b4c:	00050793          	mv	a5,a0
80000b50:	12b00713          	li	a4,299
80000b54:	00000513          	li	a0,0
80000b58:	02f76e63          	bltu	a4,a5,80000b94 <_Z17is_valid_neighborjj+0x48>
80000b5c:	02b76c63          	bltu	a4,a1,80000b94 <_Z17is_valid_neighborjj+0x48>
80000b60:	00279513          	slli	a0,a5,0x2
80000b64:	00f50533          	add	a0,a0,a5
80000b68:	00451793          	slli	a5,a0,0x4
80000b6c:	40a787b3          	sub	a5,a5,a0
80000b70:	00279793          	slli	a5,a5,0x2
80000b74:	00b785b3          	add	a1,a5,a1
80000b78:	c06337b7          	lui	a5,0xc0633
80000b7c:	cd478793          	addi	a5,a5,-812 # c0632cd4 <_end+0xfffa81bc>
80000b80:	00259593          	slli	a1,a1,0x2
80000b84:	00b785b3          	add	a1,a5,a1
80000b88:	0005a503          	lw	a0,0(a1)
80000b8c:	00153513          	seqz	a0,a0
80000b90:	00008067          	ret
80000b94:	00008067          	ret

80000b98 <_Z6f_heur5state>:
80000b98:	c4018713          	addi	a4,gp,-960 # c0000440 <goal>
80000b9c:	00072783          	lw	a5,0(a4)
80000ba0:	00472703          	lw	a4,4(a4)
80000ba4:	ff010113          	addi	sp,sp,-16
80000ba8:	40a78533          	sub	a0,a5,a0
80000bac:	40b705b3          	sub	a1,a4,a1
80000bb0:	41f5d713          	srai	a4,a1,0x1f
80000bb4:	41f55793          	srai	a5,a0,0x1f
80000bb8:	00b745b3          	xor	a1,a4,a1
80000bbc:	00a7c533          	xor	a0,a5,a0
80000bc0:	40e585b3          	sub	a1,a1,a4
80000bc4:	40f50533          	sub	a0,a0,a5
80000bc8:	00a58533          	add	a0,a1,a0
80000bcc:	01010113          	addi	sp,sp,16
80000bd0:	00008067          	ret

80000bd4 <_Z8save_soljjjjj>:
80000bd4:	00170793          	addi	a5,a4,1
80000bd8:	00079463          	bnez	a5,80000be0 <_Z8save_soljjjjj+0xc>
80000bdc:	00008067          	ret
80000be0:	c00005b7          	lui	a1,0xc0000
80000be4:	47458593          	addi	a1,a1,1140 # c0000474 <_end+0xff97595c>
80000be8:	00c5a023          	sw	a2,0(a1)
80000bec:	00d5a223          	sw	a3,4(a1)
80000bf0:	00100593          	li	a1,1
80000bf4:	feb784e3          	beq	a5,a1,80000bdc <_Z8save_soljjjjj+0x8>
80000bf8:	c00007b7          	lui	a5,0xc0000
80000bfc:	47c78793          	addi	a5,a5,1148 # c000047c <_end+0xff975964>
80000c00:	00371713          	slli	a4,a4,0x3
80000c04:	c0005537          	lui	a0,0xc0005
80000c08:	00e78733          	add	a4,a5,a4
80000c0c:	c5450513          	addi	a0,a0,-940 # c0004c54 <_end+0xff97a13c>
80000c10:	00261593          	slli	a1,a2,0x2
80000c14:	00c585b3          	add	a1,a1,a2
80000c18:	00459613          	slli	a2,a1,0x4
80000c1c:	40b60633          	sub	a2,a2,a1
80000c20:	00261613          	slli	a2,a2,0x2
80000c24:	00d606b3          	add	a3,a2,a3
80000c28:	00669693          	slli	a3,a3,0x6
80000c2c:	00d506b3          	add	a3,a0,a3
80000c30:	0086a603          	lw	a2,8(a3)
80000c34:	00c6a683          	lw	a3,12(a3)
80000c38:	00878793          	addi	a5,a5,8
80000c3c:	fec7ac23          	sw	a2,-8(a5)
80000c40:	fed7ae23          	sw	a3,-4(a5)
80000c44:	fcf716e3          	bne	a4,a5,80000c10 <_Z8save_soljjjjj+0x3c>
80000c48:	00008067          	ret

80000c4c <_Z9lls_startjjjjj>:
80000c4c:	c3c1a303          	lw	t1,-964(gp) # c000043c <done>
80000c50:	00100893          	li	a7,1
80000c54:	00060513          	mv	a0,a2
80000c58:	00068593          	mv	a1,a3
80000c5c:	00070613          	mv	a2,a4
80000c60:	05130263          	beq	t1,a7,80000ca4 <_Z9lls_startjjjjj+0x58>
80000c64:	c4018793          	addi	a5,gp,-960 # c0000440 <goal>
80000c68:	0007a703          	lw	a4,0(a5)
80000c6c:	02a70e63          	beq	a4,a0,80000ca8 <_Z9lls_startjjjjj+0x5c>
80000c70:	00251793          	slli	a5,a0,0x2
80000c74:	00a786b3          	add	a3,a5,a0
80000c78:	00469793          	slli	a5,a3,0x4
80000c7c:	40d787b3          	sub	a5,a5,a3
80000c80:	00279793          	slli	a5,a5,0x2
80000c84:	00b787b3          	add	a5,a5,a1
80000c88:	c05db837          	lui	a6,0xc05db
80000c8c:	00279793          	slli	a5,a5,0x2
80000c90:	e9480813          	addi	a6,a6,-364 # c05dae94 <_end+0xfff5037c>
80000c94:	00f807b3          	add	a5,a6,a5
80000c98:	0007a783          	lw	a5,0(a5)
80000c9c:	00079463          	bnez	a5,80000ca4 <_Z9lls_startjjjjj+0x58>
80000ca0:	805ff06f          	j	800004a4 <_Z9lls_startjjjjj.part.0>
80000ca4:	00008067          	ret
80000ca8:	0047a783          	lw	a5,4(a5)
80000cac:	fcd792e3          	bne	a5,a3,80000c70 <_Z9lls_startjjjjj+0x24>
80000cb0:	c00007b7          	lui	a5,0xc0000
80000cb4:	c3c18713          	addi	a4,gp,-964 # c000043c <done>
80000cb8:	02e7a823          	sw	a4,48(a5) # c0000030 <_end+0xff975518>
80000cbc:	0267aa23          	sw	t1,52(a5)
80000cc0:	c311ae23          	sw	a7,-964(gp) # c000043c <done>
80000cc4:	fff00793          	li	a5,-1
80000cc8:	faf604e3          	beq	a2,a5,80000c70 <_Z9lls_startjjjjj+0x24>
80000ccc:	c00006b7          	lui	a3,0xc0000
80000cd0:	47468693          	addi	a3,a3,1140 # c0000474 <_end+0xff97595c>
80000cd4:	00361313          	slli	t1,a2,0x3
80000cd8:	00868793          	addi	a5,a3,8
80000cdc:	c0005e37          	lui	t3,0xc0005
80000ce0:	00f30333          	add	t1,t1,a5
80000ce4:	00050713          	mv	a4,a0
80000ce8:	00058893          	mv	a7,a1
80000cec:	c54e0e13          	addi	t3,t3,-940 # c0004c54 <_end+0xff97a13c>
80000cf0:	00271793          	slli	a5,a4,0x2
80000cf4:	00e78833          	add	a6,a5,a4
80000cf8:	00481793          	slli	a5,a6,0x4
80000cfc:	410787b3          	sub	a5,a5,a6
80000d00:	00279793          	slli	a5,a5,0x2
80000d04:	011787b3          	add	a5,a5,a7
80000d08:	00679793          	slli	a5,a5,0x6
80000d0c:	00e6a023          	sw	a4,0(a3)
80000d10:	0116a223          	sw	a7,4(a3)
80000d14:	00fe07b3          	add	a5,t3,a5
80000d18:	00868693          	addi	a3,a3,8
80000d1c:	0087a703          	lw	a4,8(a5)
80000d20:	00c7a883          	lw	a7,12(a5)
80000d24:	fcd316e3          	bne	t1,a3,80000cf0 <_Z9lls_startjjjjj+0xa4>
80000d28:	f49ff06f          	j	80000c70 <_Z9lls_startjjjjj+0x24>

80000d2c <_Z10random_u32j>:
80000d2c:	00151793          	slli	a5,a0,0x1
80000d30:	00a787b3          	add	a5,a5,a0
80000d34:	00479793          	slli	a5,a5,0x4
80000d38:	40a787b3          	sub	a5,a5,a0
80000d3c:	00379793          	slli	a5,a5,0x3
80000d40:	00a787b3          	add	a5,a5,a0
80000d44:	00379793          	slli	a5,a5,0x3
80000d48:	00a787b3          	add	a5,a5,a0
80000d4c:	00479793          	slli	a5,a5,0x4
80000d50:	40a78533          	sub	a0,a5,a0
80000d54:	00008067          	ret

80000d58 <_Z15visit_node_taskjjj>:
80000d58:	fd010113          	addi	sp,sp,-48
80000d5c:	01512a23          	sw	s5,20(sp)
80000d60:	01612823          	sw	s6,16(sp)
80000d64:	00058ab7          	lui	s5,0x58
80000d68:	c0633b37          	lui	s6,0xc0633
80000d6c:	cd4b0b13          	addi	s6,s6,-812 # c0632cd4 <_end+0xfffa81bc>
80000d70:	01712623          	sw	s7,12(sp)
80000d74:	01812423          	sw	s8,8(sp)
80000d78:	2f0a8a93          	addi	s5,s5,752 # 582f0 <main-0x7ffa7d84>
80000d7c:	bdb4bc37          	lui	s8,0xbdb4b
80000d80:	02812423          	sw	s0,40(sp)
80000d84:	02912223          	sw	s1,36(sp)
80000d88:	03212023          	sw	s2,32(sp)
80000d8c:	01312e23          	sw	s3,28(sp)
80000d90:	01412c23          	sw	s4,24(sp)
80000d94:	02112623          	sw	ra,44(sp)
80000d98:	01912223          	sw	s9,4(sp)
80000d9c:	c201ac23          	sw	zero,-968(gp) # c0000438 <cnt>
80000da0:	4b0b0413          	addi	s0,s6,1200
80000da4:	015b0ab3          	add	s5,s6,s5
80000da8:	00000993          	li	s3,0
80000dac:	00000493          	li	s1,0
80000db0:	e3cc0c13          	addi	s8,s8,-452 # bdb4ae3c <_end+0xfd4c0324>
80000db4:	01300913          	li	s2,19
80000db8:	00100a13          	li	s4,1
80000dbc:	b5040c93          	addi	s9,s0,-1200
80000dc0:	000c0513          	mv	a0,s8
80000dc4:	06400593          	li	a1,100
80000dc8:	2fc000ef          	jal	ra,800010c4 <__umodsi3>
80000dcc:	001c1793          	slli	a5,s8,0x1
80000dd0:	018787b3          	add	a5,a5,s8
80000dd4:	00479793          	slli	a5,a5,0x4
80000dd8:	418787b3          	sub	a5,a5,s8
80000ddc:	00379793          	slli	a5,a5,0x3
80000de0:	018787b3          	add	a5,a5,s8
80000de4:	00379793          	slli	a5,a5,0x3
80000de8:	018787b3          	add	a5,a5,s8
80000dec:	00479793          	slli	a5,a5,0x4
80000df0:	00a96863          	bltu	s2,a0,80000e00 <_Z15visit_node_taskjjj+0xa8>
80000df4:	014ca023          	sw	s4,0(s9)
80000df8:	00148493          	addi	s1,s1,1
80000dfc:	00100993          	li	s3,1
80000e00:	004c8c93          	addi	s9,s9,4
80000e04:	41878c33          	sub	s8,a5,s8
80000e08:	fa8c9ce3          	bne	s9,s0,80000dc0 <_Z15visit_node_taskjjj+0x68>
80000e0c:	4b0c8413          	addi	s0,s9,1200
80000e10:	fb5416e3          	bne	s0,s5,80000dbc <_Z15visit_node_taskjjj+0x64>
80000e14:	00098463          	beqz	s3,80000e1c <_Z15visit_node_taskjjj+0xc4>
80000e18:	c291ac23          	sw	s1,-968(gp) # c0000438 <cnt>
80000e1c:	c00057b7          	lui	a5,0xc0005
80000e20:	c5478793          	addi	a5,a5,-940 # c0004c54 <_end+0xff97a13c>
80000e24:	c4818613          	addi	a2,gp,-952 # c0000448 <start>
80000e28:	c4018693          	addi	a3,gp,-960 # c0000440 <goal>
80000e2c:	12a00593          	li	a1,298
80000e30:	000b2023          	sw	zero,0(s6)
80000e34:	00062023          	sw	zero,0(a2)
80000e38:	00b6a023          	sw	a1,0(a3)
80000e3c:	0007a023          	sw	zero,0(a5)
80000e40:	c0000737          	lui	a4,0xc0000
80000e44:	10072423          	sw	zero,264(a4) # c0000108 <_end+0xff9755f0>
80000e48:	10072223          	sw	zero,260(a4)
80000e4c:	10072023          	sw	zero,256(a4)
80000e50:	00058537          	lui	a0,0x58
80000e54:	00072223          	sw	zero,4(a4)
80000e58:	00ab0b33          	add	s6,s6,a0
80000e5c:	00100513          	li	a0,1
80000e60:	00a72423          	sw	a0,8(a4)
80000e64:	02c12083          	lw	ra,44(sp)
80000e68:	02812403          	lw	s0,40(sp)
80000e6c:	980b2423          	sw	zero,-1656(s6)
80000e70:	00062223          	sw	zero,4(a2)
80000e74:	00b6a223          	sw	a1,4(a3)
80000e78:	0007a823          	sw	zero,16(a5)
80000e7c:	0007a223          	sw	zero,4(a5)
80000e80:	0007a423          	sw	zero,8(a5)
80000e84:	0007a623          	sw	zero,12(a5)
80000e88:	00072023          	sw	zero,0(a4)
80000e8c:	02412483          	lw	s1,36(sp)
80000e90:	02012903          	lw	s2,32(sp)
80000e94:	01c12983          	lw	s3,28(sp)
80000e98:	01812a03          	lw	s4,24(sp)
80000e9c:	01412a83          	lw	s5,20(sp)
80000ea0:	01012b03          	lw	s6,16(sp)
80000ea4:	00c12b83          	lw	s7,12(sp)
80000ea8:	00812c03          	lw	s8,8(sp)
80000eac:	00412c83          	lw	s9,4(sp)
80000eb0:	03010113          	addi	sp,sp,48
80000eb4:	00008067          	ret

80000eb8 <__fixunssfsi>:
80000eb8:	00800637          	lui	a2,0x800
80000ebc:	01755713          	srli	a4,a0,0x17
80000ec0:	fff60793          	addi	a5,a2,-1 # 7fffff <main-0x7f800075>
80000ec4:	0ff77713          	andi	a4,a4,255
80000ec8:	07e00593          	li	a1,126
80000ecc:	00a7f6b3          	and	a3,a5,a0
80000ed0:	01f55793          	srli	a5,a0,0x1f
80000ed4:	00e5dc63          	bge	a1,a4,80000eec <__fixunssfsi+0x34>
80000ed8:	09f00593          	li	a1,159
80000edc:	40f585b3          	sub	a1,a1,a5
80000ee0:	fff78513          	addi	a0,a5,-1
80000ee4:	00b74863          	blt	a4,a1,80000ef4 <__fixunssfsi+0x3c>
80000ee8:	00008067          	ret
80000eec:	00000513          	li	a0,0
80000ef0:	00008067          	ret
80000ef4:	00000513          	li	a0,0
80000ef8:	fe0798e3          	bnez	a5,80000ee8 <__fixunssfsi+0x30>
80000efc:	09500593          	li	a1,149
80000f00:	00c6e7b3          	or	a5,a3,a2
80000f04:	00e5d863          	bge	a1,a4,80000f14 <__fixunssfsi+0x5c>
80000f08:	f6a70713          	addi	a4,a4,-150
80000f0c:	00e79533          	sll	a0,a5,a4
80000f10:	00008067          	ret
80000f14:	09600513          	li	a0,150
80000f18:	40e50733          	sub	a4,a0,a4
80000f1c:	00e7d533          	srl	a0,a5,a4
80000f20:	00008067          	ret

80000f24 <__floatunsisf>:
80000f24:	ff010113          	addi	sp,sp,-16
80000f28:	00112623          	sw	ra,12(sp)
80000f2c:	00812423          	sw	s0,8(sp)
80000f30:	04050a63          	beqz	a0,80000f84 <__floatunsisf+0x60>
80000f34:	00050413          	mv	s0,a0
80000f38:	1f0000ef          	jal	ra,80001128 <__clzsi2>
80000f3c:	09e00793          	li	a5,158
80000f40:	40a787b3          	sub	a5,a5,a0
80000f44:	09600713          	li	a4,150
80000f48:	00050693          	mv	a3,a0
80000f4c:	04f74c63          	blt	a4,a5,80000fa4 <__floatunsisf+0x80>
80000f50:	00800713          	li	a4,8
80000f54:	0ff7f513          	andi	a0,a5,255
80000f58:	00d75663          	bge	a4,a3,80000f64 <__floatunsisf+0x40>
80000f5c:	ff868693          	addi	a3,a3,-8
80000f60:	00d41433          	sll	s0,s0,a3
80000f64:	00941413          	slli	s0,s0,0x9
80000f68:	00945413          	srli	s0,s0,0x9
80000f6c:	01751513          	slli	a0,a0,0x17
80000f70:	00c12083          	lw	ra,12(sp)
80000f74:	00856533          	or	a0,a0,s0
80000f78:	00812403          	lw	s0,8(sp)
80000f7c:	01010113          	addi	sp,sp,16
80000f80:	00008067          	ret
80000f84:	00000513          	li	a0,0
80000f88:	00000413          	li	s0,0
80000f8c:	01751513          	slli	a0,a0,0x17
80000f90:	00c12083          	lw	ra,12(sp)
80000f94:	00856533          	or	a0,a0,s0
80000f98:	00812403          	lw	s0,8(sp)
80000f9c:	01010113          	addi	sp,sp,16
80000fa0:	00008067          	ret
80000fa4:	09900713          	li	a4,153
80000fa8:	02f75063          	bge	a4,a5,80000fc8 <__floatunsisf+0xa4>
80000fac:	01b50713          	addi	a4,a0,27 # 5801b <main-0x7ffa8059>
80000fb0:	00500513          	li	a0,5
80000fb4:	00e41733          	sll	a4,s0,a4
80000fb8:	40d50533          	sub	a0,a0,a3
80000fbc:	00e03733          	snez	a4,a4
80000fc0:	00a45433          	srl	s0,s0,a0
80000fc4:	00876433          	or	s0,a4,s0
80000fc8:	00500713          	li	a4,5
80000fcc:	06d74263          	blt	a4,a3,80001030 <__floatunsisf+0x10c>
80000fd0:	fc000637          	lui	a2,0xfc000
80000fd4:	fff60613          	addi	a2,a2,-1 # fbffffff <_end+0x3b9754e7>
80000fd8:	00747593          	andi	a1,s0,7
80000fdc:	00c47733          	and	a4,s0,a2
80000fe0:	02058663          	beqz	a1,8000100c <__floatunsisf+0xe8>
80000fe4:	00f47413          	andi	s0,s0,15
80000fe8:	00400593          	li	a1,4
80000fec:	02b40063          	beq	s0,a1,8000100c <__floatunsisf+0xe8>
80000ff0:	00470713          	addi	a4,a4,4
80000ff4:	040005b7          	lui	a1,0x4000
80000ff8:	00b775b3          	and	a1,a4,a1
80000ffc:	00058863          	beqz	a1,8000100c <__floatunsisf+0xe8>
80001000:	09f00793          	li	a5,159
80001004:	00c77733          	and	a4,a4,a2
80001008:	40d787b3          	sub	a5,a5,a3
8000100c:	00671413          	slli	s0,a4,0x6
80001010:	0ff7f513          	andi	a0,a5,255
80001014:	00945413          	srli	s0,s0,0x9
80001018:	01751513          	slli	a0,a0,0x17
8000101c:	00c12083          	lw	ra,12(sp)
80001020:	00856533          	or	a0,a0,s0
80001024:	00812403          	lw	s0,8(sp)
80001028:	01010113          	addi	sp,sp,16
8000102c:	00008067          	ret
80001030:	ffb68713          	addi	a4,a3,-5
80001034:	00e41433          	sll	s0,s0,a4
80001038:	fc000637          	lui	a2,0xfc000
8000103c:	fff60613          	addi	a2,a2,-1 # fbffffff <_end+0x3b9754e7>
80001040:	00747593          	andi	a1,s0,7
80001044:	00c47733          	and	a4,s0,a2
80001048:	fc0582e3          	beqz	a1,8000100c <__floatunsisf+0xe8>
8000104c:	f99ff06f          	j	80000fe4 <__floatunsisf+0xc0>

80001050 <__mulsi3>:
80001050:	00050613          	mv	a2,a0
80001054:	00000513          	li	a0,0
80001058:	0015f693          	andi	a3,a1,1
8000105c:	00068463          	beqz	a3,80001064 <__mulsi3+0x14>
80001060:	00c50533          	add	a0,a0,a2
80001064:	0015d593          	srli	a1,a1,0x1
80001068:	00161613          	slli	a2,a2,0x1
8000106c:	fe0596e3          	bnez	a1,80001058 <__mulsi3+0x8>
80001070:	00008067          	ret

80001074 <__divsi3>:
80001074:	06054063          	bltz	a0,800010d4 <__umodsi3+0x10>
80001078:	0605c663          	bltz	a1,800010e4 <__umodsi3+0x20>

8000107c <__udivsi3>:
8000107c:	00058613          	mv	a2,a1
80001080:	00050593          	mv	a1,a0
80001084:	fff00513          	li	a0,-1
80001088:	02060c63          	beqz	a2,800010c0 <__udivsi3+0x44>
8000108c:	00100693          	li	a3,1
80001090:	00b67a63          	bgeu	a2,a1,800010a4 <__udivsi3+0x28>
80001094:	00c05863          	blez	a2,800010a4 <__udivsi3+0x28>
80001098:	00161613          	slli	a2,a2,0x1
8000109c:	00169693          	slli	a3,a3,0x1
800010a0:	feb66ae3          	bltu	a2,a1,80001094 <__udivsi3+0x18>
800010a4:	00000513          	li	a0,0
800010a8:	00c5e663          	bltu	a1,a2,800010b4 <__udivsi3+0x38>
800010ac:	40c585b3          	sub	a1,a1,a2
800010b0:	00d56533          	or	a0,a0,a3
800010b4:	0016d693          	srli	a3,a3,0x1
800010b8:	00165613          	srli	a2,a2,0x1
800010bc:	fe0696e3          	bnez	a3,800010a8 <__udivsi3+0x2c>
800010c0:	00008067          	ret

800010c4 <__umodsi3>:
800010c4:	00008293          	mv	t0,ra
800010c8:	fb5ff0ef          	jal	ra,8000107c <__udivsi3>
800010cc:	00058513          	mv	a0,a1
800010d0:	00028067          	jr	t0
800010d4:	40a00533          	neg	a0,a0
800010d8:	00b04863          	bgtz	a1,800010e8 <__umodsi3+0x24>
800010dc:	40b005b3          	neg	a1,a1
800010e0:	f9dff06f          	j	8000107c <__udivsi3>
800010e4:	40b005b3          	neg	a1,a1
800010e8:	00008293          	mv	t0,ra
800010ec:	f91ff0ef          	jal	ra,8000107c <__udivsi3>
800010f0:	40a00533          	neg	a0,a0
800010f4:	00028067          	jr	t0

800010f8 <__modsi3>:
800010f8:	00008293          	mv	t0,ra
800010fc:	0005ca63          	bltz	a1,80001110 <__modsi3+0x18>
80001100:	00054c63          	bltz	a0,80001118 <__modsi3+0x20>
80001104:	f79ff0ef          	jal	ra,8000107c <__udivsi3>
80001108:	00058513          	mv	a0,a1
8000110c:	00028067          	jr	t0
80001110:	40b005b3          	neg	a1,a1
80001114:	fe0558e3          	bgez	a0,80001104 <__modsi3+0xc>
80001118:	40a00533          	neg	a0,a0
8000111c:	f61ff0ef          	jal	ra,8000107c <__udivsi3>
80001120:	40b00533          	neg	a0,a1
80001124:	00028067          	jr	t0

80001128 <__clzsi2>:
80001128:	000107b7          	lui	a5,0x10
8000112c:	02f57463          	bgeu	a0,a5,80001154 <__clzsi2+0x2c>
80001130:	0ff00793          	li	a5,255
80001134:	02000713          	li	a4,32
80001138:	06a7e263          	bltu	a5,a0,8000119c <__clzsi2+0x74>
8000113c:	00000797          	auipc	a5,0x0
80001140:	41c78793          	addi	a5,a5,1052 # 80001558 <__clz_tab>
80001144:	00a78533          	add	a0,a5,a0
80001148:	00054503          	lbu	a0,0(a0)
8000114c:	40a70533          	sub	a0,a4,a0
80001150:	00008067          	ret
80001154:	010007b7          	lui	a5,0x1000
80001158:	02f57263          	bgeu	a0,a5,8000117c <__clzsi2+0x54>
8000115c:	00000797          	auipc	a5,0x0
80001160:	3fc78793          	addi	a5,a5,1020 # 80001558 <__clz_tab>
80001164:	01055513          	srli	a0,a0,0x10
80001168:	00a78533          	add	a0,a5,a0
8000116c:	00054503          	lbu	a0,0(a0)
80001170:	01000713          	li	a4,16
80001174:	40a70533          	sub	a0,a4,a0
80001178:	00008067          	ret
8000117c:	00000797          	auipc	a5,0x0
80001180:	3dc78793          	addi	a5,a5,988 # 80001558 <__clz_tab>
80001184:	01855513          	srli	a0,a0,0x18
80001188:	00a78533          	add	a0,a5,a0
8000118c:	00054503          	lbu	a0,0(a0)
80001190:	00800713          	li	a4,8
80001194:	40a70533          	sub	a0,a4,a0
80001198:	00008067          	ret
8000119c:	00000797          	auipc	a5,0x0
800011a0:	3bc78793          	addi	a5,a5,956 # 80001558 <__clz_tab>
800011a4:	00855513          	srli	a0,a0,0x8
800011a8:	00a78533          	add	a0,a5,a0
800011ac:	00054503          	lbu	a0,0(a0)
800011b0:	01800713          	li	a4,24
800011b4:	40a70533          	sub	a0,a4,a0
800011b8:	00008067          	ret

800011bc <__libc_init_array>:
800011bc:	ff010113          	addi	sp,sp,-16
800011c0:	00812423          	sw	s0,8(sp)
800011c4:	01212023          	sw	s2,0(sp)
800011c8:	00001417          	auipc	s0,0x1
800011cc:	73c40413          	addi	s0,s0,1852 # 80002904 <__init_array_start>
800011d0:	00001917          	auipc	s2,0x1
800011d4:	73490913          	addi	s2,s2,1844 # 80002904 <__init_array_start>
800011d8:	40890933          	sub	s2,s2,s0
800011dc:	00112623          	sw	ra,12(sp)
800011e0:	00912223          	sw	s1,4(sp)
800011e4:	40295913          	srai	s2,s2,0x2
800011e8:	00090e63          	beqz	s2,80001204 <__libc_init_array+0x48>
800011ec:	00000493          	li	s1,0
800011f0:	00042783          	lw	a5,0(s0)
800011f4:	00148493          	addi	s1,s1,1
800011f8:	00440413          	addi	s0,s0,4
800011fc:	000780e7          	jalr	a5
80001200:	fe9918e3          	bne	s2,s1,800011f0 <__libc_init_array+0x34>
80001204:	00001417          	auipc	s0,0x1
80001208:	70040413          	addi	s0,s0,1792 # 80002904 <__init_array_start>
8000120c:	00001917          	auipc	s2,0x1
80001210:	70090913          	addi	s2,s2,1792 # 8000290c <__do_global_dtors_aux_fini_array_entry>
80001214:	40890933          	sub	s2,s2,s0
80001218:	40295913          	srai	s2,s2,0x2
8000121c:	00090e63          	beqz	s2,80001238 <__libc_init_array+0x7c>
80001220:	00000493          	li	s1,0
80001224:	00042783          	lw	a5,0(s0)
80001228:	00148493          	addi	s1,s1,1
8000122c:	00440413          	addi	s0,s0,4
80001230:	000780e7          	jalr	a5
80001234:	fe9918e3          	bne	s2,s1,80001224 <__libc_init_array+0x68>
80001238:	00c12083          	lw	ra,12(sp)
8000123c:	00812403          	lw	s0,8(sp)
80001240:	00412483          	lw	s1,4(sp)
80001244:	00012903          	lw	s2,0(sp)
80001248:	01010113          	addi	sp,sp,16
8000124c:	00008067          	ret

80001250 <memset>:
80001250:	00f00313          	li	t1,15
80001254:	00050713          	mv	a4,a0
80001258:	02c37e63          	bgeu	t1,a2,80001294 <memset+0x44>
8000125c:	00f77793          	andi	a5,a4,15
80001260:	0a079063          	bnez	a5,80001300 <memset+0xb0>
80001264:	08059263          	bnez	a1,800012e8 <memset+0x98>
80001268:	ff067693          	andi	a3,a2,-16
8000126c:	00f67613          	andi	a2,a2,15
80001270:	00e686b3          	add	a3,a3,a4
80001274:	00b72023          	sw	a1,0(a4)
80001278:	00b72223          	sw	a1,4(a4)
8000127c:	00b72423          	sw	a1,8(a4)
80001280:	00b72623          	sw	a1,12(a4)
80001284:	01070713          	addi	a4,a4,16
80001288:	fed766e3          	bltu	a4,a3,80001274 <memset+0x24>
8000128c:	00061463          	bnez	a2,80001294 <memset+0x44>
80001290:	00008067          	ret
80001294:	40c306b3          	sub	a3,t1,a2
80001298:	00269693          	slli	a3,a3,0x2
8000129c:	00000297          	auipc	t0,0x0
800012a0:	005686b3          	add	a3,a3,t0
800012a4:	00c68067          	jr	12(a3)
800012a8:	00b70723          	sb	a1,14(a4)
800012ac:	00b706a3          	sb	a1,13(a4)
800012b0:	00b70623          	sb	a1,12(a4)
800012b4:	00b705a3          	sb	a1,11(a4)
800012b8:	00b70523          	sb	a1,10(a4)
800012bc:	00b704a3          	sb	a1,9(a4)
800012c0:	00b70423          	sb	a1,8(a4)
800012c4:	00b703a3          	sb	a1,7(a4)
800012c8:	00b70323          	sb	a1,6(a4)
800012cc:	00b702a3          	sb	a1,5(a4)
800012d0:	00b70223          	sb	a1,4(a4)
800012d4:	00b701a3          	sb	a1,3(a4)
800012d8:	00b70123          	sb	a1,2(a4)
800012dc:	00b700a3          	sb	a1,1(a4)
800012e0:	00b70023          	sb	a1,0(a4)
800012e4:	00008067          	ret
800012e8:	0ff5f593          	andi	a1,a1,255
800012ec:	00859693          	slli	a3,a1,0x8
800012f0:	00d5e5b3          	or	a1,a1,a3
800012f4:	01059693          	slli	a3,a1,0x10
800012f8:	00d5e5b3          	or	a1,a1,a3
800012fc:	f6dff06f          	j	80001268 <memset+0x18>
80001300:	00279693          	slli	a3,a5,0x2
80001304:	00000297          	auipc	t0,0x0
80001308:	005686b3          	add	a3,a3,t0
8000130c:	00008293          	mv	t0,ra
80001310:	fa0680e7          	jalr	-96(a3)
80001314:	00028093          	mv	ra,t0
80001318:	ff078793          	addi	a5,a5,-16
8000131c:	40f70733          	sub	a4,a4,a5
80001320:	00f60633          	add	a2,a2,a5
80001324:	f6c378e3          	bgeu	t1,a2,80001294 <memset+0x44>
80001328:	f3dff06f          	j	80001264 <memset+0x14>

8000132c <__call_exitprocs>:
8000132c:	fd010113          	addi	sp,sp,-48
80001330:	01412c23          	sw	s4,24(sp)
80001334:	c281aa03          	lw	s4,-984(gp) # c0000428 <_global_impure_ptr>
80001338:	03212023          	sw	s2,32(sp)
8000133c:	148a2903          	lw	s2,328(s4)
80001340:	02112623          	sw	ra,44(sp)
80001344:	02812423          	sw	s0,40(sp)
80001348:	02912223          	sw	s1,36(sp)
8000134c:	01312e23          	sw	s3,28(sp)
80001350:	01512a23          	sw	s5,20(sp)
80001354:	01612823          	sw	s6,16(sp)
80001358:	01712623          	sw	s7,12(sp)
8000135c:	01812423          	sw	s8,8(sp)
80001360:	04090063          	beqz	s2,800013a0 <__call_exitprocs+0x74>
80001364:	00050b13          	mv	s6,a0
80001368:	00058b93          	mv	s7,a1
8000136c:	00100a93          	li	s5,1
80001370:	fff00993          	li	s3,-1
80001374:	00492483          	lw	s1,4(s2)
80001378:	fff48413          	addi	s0,s1,-1
8000137c:	02044263          	bltz	s0,800013a0 <__call_exitprocs+0x74>
80001380:	00249493          	slli	s1,s1,0x2
80001384:	009904b3          	add	s1,s2,s1
80001388:	040b8463          	beqz	s7,800013d0 <__call_exitprocs+0xa4>
8000138c:	1044a783          	lw	a5,260(s1)
80001390:	05778063          	beq	a5,s7,800013d0 <__call_exitprocs+0xa4>
80001394:	fff40413          	addi	s0,s0,-1
80001398:	ffc48493          	addi	s1,s1,-4
8000139c:	ff3416e3          	bne	s0,s3,80001388 <__call_exitprocs+0x5c>
800013a0:	02c12083          	lw	ra,44(sp)
800013a4:	02812403          	lw	s0,40(sp)
800013a8:	02412483          	lw	s1,36(sp)
800013ac:	02012903          	lw	s2,32(sp)
800013b0:	01c12983          	lw	s3,28(sp)
800013b4:	01812a03          	lw	s4,24(sp)
800013b8:	01412a83          	lw	s5,20(sp)
800013bc:	01012b03          	lw	s6,16(sp)
800013c0:	00c12b83          	lw	s7,12(sp)
800013c4:	00812c03          	lw	s8,8(sp)
800013c8:	03010113          	addi	sp,sp,48
800013cc:	00008067          	ret
800013d0:	00492783          	lw	a5,4(s2)
800013d4:	0044a683          	lw	a3,4(s1)
800013d8:	fff78793          	addi	a5,a5,-1
800013dc:	04878e63          	beq	a5,s0,80001438 <__call_exitprocs+0x10c>
800013e0:	0004a223          	sw	zero,4(s1)
800013e4:	fa0688e3          	beqz	a3,80001394 <__call_exitprocs+0x68>
800013e8:	18892783          	lw	a5,392(s2)
800013ec:	008a9733          	sll	a4,s5,s0
800013f0:	00492c03          	lw	s8,4(s2)
800013f4:	00f777b3          	and	a5,a4,a5
800013f8:	02079263          	bnez	a5,8000141c <__call_exitprocs+0xf0>
800013fc:	000680e7          	jalr	a3
80001400:	00492703          	lw	a4,4(s2)
80001404:	148a2783          	lw	a5,328(s4)
80001408:	01871463          	bne	a4,s8,80001410 <__call_exitprocs+0xe4>
8000140c:	f92784e3          	beq	a5,s2,80001394 <__call_exitprocs+0x68>
80001410:	f80788e3          	beqz	a5,800013a0 <__call_exitprocs+0x74>
80001414:	00078913          	mv	s2,a5
80001418:	f5dff06f          	j	80001374 <__call_exitprocs+0x48>
8000141c:	18c92783          	lw	a5,396(s2)
80001420:	0844a583          	lw	a1,132(s1)
80001424:	00f77733          	and	a4,a4,a5
80001428:	00071c63          	bnez	a4,80001440 <__call_exitprocs+0x114>
8000142c:	000b0513          	mv	a0,s6
80001430:	000680e7          	jalr	a3
80001434:	fcdff06f          	j	80001400 <__call_exitprocs+0xd4>
80001438:	00892223          	sw	s0,4(s2)
8000143c:	fa9ff06f          	j	800013e4 <__call_exitprocs+0xb8>
80001440:	00058513          	mv	a0,a1
80001444:	000680e7          	jalr	a3
80001448:	fb9ff06f          	j	80001400 <__call_exitprocs+0xd4>

8000144c <__libc_fini_array>:
8000144c:	ff010113          	addi	sp,sp,-16
80001450:	00812423          	sw	s0,8(sp)
80001454:	00001797          	auipc	a5,0x1
80001458:	4bc78793          	addi	a5,a5,1212 # 80002910 <__fini_array_end>
8000145c:	00001417          	auipc	s0,0x1
80001460:	4b040413          	addi	s0,s0,1200 # 8000290c <__do_global_dtors_aux_fini_array_entry>
80001464:	408787b3          	sub	a5,a5,s0
80001468:	00912223          	sw	s1,4(sp)
8000146c:	00112623          	sw	ra,12(sp)
80001470:	4027d493          	srai	s1,a5,0x2
80001474:	02048063          	beqz	s1,80001494 <__libc_fini_array+0x48>
80001478:	ffc78793          	addi	a5,a5,-4
8000147c:	00878433          	add	s0,a5,s0
80001480:	00042783          	lw	a5,0(s0)
80001484:	fff48493          	addi	s1,s1,-1
80001488:	ffc40413          	addi	s0,s0,-4
8000148c:	000780e7          	jalr	a5
80001490:	fe0498e3          	bnez	s1,80001480 <__libc_fini_array+0x34>
80001494:	00c12083          	lw	ra,12(sp)
80001498:	00812403          	lw	s0,8(sp)
8000149c:	00412483          	lw	s1,4(sp)
800014a0:	01010113          	addi	sp,sp,16
800014a4:	00008067          	ret

800014a8 <atexit>:
800014a8:	00050593          	mv	a1,a0
800014ac:	00000693          	li	a3,0
800014b0:	00000613          	li	a2,0
800014b4:	00000513          	li	a0,0
800014b8:	0040006f          	j	800014bc <__register_exitproc>

800014bc <__register_exitproc>:
800014bc:	c281a703          	lw	a4,-984(gp) # c0000428 <_global_impure_ptr>
800014c0:	14872783          	lw	a5,328(a4)
800014c4:	04078c63          	beqz	a5,8000151c <__register_exitproc+0x60>
800014c8:	0047a703          	lw	a4,4(a5)
800014cc:	01f00813          	li	a6,31
800014d0:	06e84e63          	blt	a6,a4,8000154c <__register_exitproc+0x90>
800014d4:	00271813          	slli	a6,a4,0x2
800014d8:	02050663          	beqz	a0,80001504 <__register_exitproc+0x48>
800014dc:	01078333          	add	t1,a5,a6
800014e0:	08c32423          	sw	a2,136(t1)
800014e4:	1887a883          	lw	a7,392(a5)
800014e8:	00100613          	li	a2,1
800014ec:	00e61633          	sll	a2,a2,a4
800014f0:	00c8e8b3          	or	a7,a7,a2
800014f4:	1917a423          	sw	a7,392(a5)
800014f8:	10d32423          	sw	a3,264(t1)
800014fc:	00200693          	li	a3,2
80001500:	02d50463          	beq	a0,a3,80001528 <__register_exitproc+0x6c>
80001504:	00170713          	addi	a4,a4,1
80001508:	00e7a223          	sw	a4,4(a5)
8000150c:	010787b3          	add	a5,a5,a6
80001510:	00b7a423          	sw	a1,8(a5)
80001514:	00000513          	li	a0,0
80001518:	00008067          	ret
8000151c:	14c70793          	addi	a5,a4,332
80001520:	14f72423          	sw	a5,328(a4)
80001524:	fa5ff06f          	j	800014c8 <__register_exitproc+0xc>
80001528:	18c7a683          	lw	a3,396(a5)
8000152c:	00170713          	addi	a4,a4,1
80001530:	00e7a223          	sw	a4,4(a5)
80001534:	00c6e633          	or	a2,a3,a2
80001538:	18c7a623          	sw	a2,396(a5)
8000153c:	010787b3          	add	a5,a5,a6
80001540:	00b7a423          	sw	a1,8(a5)
80001544:	00000513          	li	a0,0
80001548:	00008067          	ret
8000154c:	fff00513          	li	a0,-1
80001550:	00008067          	ret

80001554 <_exit>:
80001554:	0000006f          	j	80001554 <_exit>

Disassembly of section .rodata:

80001558 <__clz_tab>:
80001558:	0100                	addi	s0,sp,128
8000155a:	0202                	c.slli64	tp
8000155c:	03030303          	lb	t1,48(t1)
80001560:	0404                	addi	s1,sp,512
80001562:	0404                	addi	s1,sp,512
80001564:	0404                	addi	s1,sp,512
80001566:	0404                	addi	s1,sp,512
80001568:	0505                	addi	a0,a0,1
8000156a:	0505                	addi	a0,a0,1
8000156c:	0505                	addi	a0,a0,1
8000156e:	0505                	addi	a0,a0,1
80001570:	0505                	addi	a0,a0,1
80001572:	0505                	addi	a0,a0,1
80001574:	0505                	addi	a0,a0,1
80001576:	0505                	addi	a0,a0,1
80001578:	0606                	slli	a2,a2,0x1
8000157a:	0606                	slli	a2,a2,0x1
8000157c:	0606                	slli	a2,a2,0x1
8000157e:	0606                	slli	a2,a2,0x1
80001580:	0606                	slli	a2,a2,0x1
80001582:	0606                	slli	a2,a2,0x1
80001584:	0606                	slli	a2,a2,0x1
80001586:	0606                	slli	a2,a2,0x1
80001588:	0606                	slli	a2,a2,0x1
8000158a:	0606                	slli	a2,a2,0x1
8000158c:	0606                	slli	a2,a2,0x1
8000158e:	0606                	slli	a2,a2,0x1
80001590:	0606                	slli	a2,a2,0x1
80001592:	0606                	slli	a2,a2,0x1
80001594:	0606                	slli	a2,a2,0x1
80001596:	0606                	slli	a2,a2,0x1
80001598:	07070707          	0x7070707
8000159c:	07070707          	0x7070707
800015a0:	07070707          	0x7070707
800015a4:	07070707          	0x7070707
800015a8:	07070707          	0x7070707
800015ac:	07070707          	0x7070707
800015b0:	07070707          	0x7070707
800015b4:	07070707          	0x7070707
800015b8:	07070707          	0x7070707
800015bc:	07070707          	0x7070707
800015c0:	07070707          	0x7070707
800015c4:	07070707          	0x7070707
800015c8:	07070707          	0x7070707
800015cc:	07070707          	0x7070707
800015d0:	07070707          	0x7070707
800015d4:	07070707          	0x7070707
800015d8:	0808                	addi	a0,sp,16
800015da:	0808                	addi	a0,sp,16
800015dc:	0808                	addi	a0,sp,16
800015de:	0808                	addi	a0,sp,16
800015e0:	0808                	addi	a0,sp,16
800015e2:	0808                	addi	a0,sp,16
800015e4:	0808                	addi	a0,sp,16
800015e6:	0808                	addi	a0,sp,16
800015e8:	0808                	addi	a0,sp,16
800015ea:	0808                	addi	a0,sp,16
800015ec:	0808                	addi	a0,sp,16
800015ee:	0808                	addi	a0,sp,16
800015f0:	0808                	addi	a0,sp,16
800015f2:	0808                	addi	a0,sp,16
800015f4:	0808                	addi	a0,sp,16
800015f6:	0808                	addi	a0,sp,16
800015f8:	0808                	addi	a0,sp,16
800015fa:	0808                	addi	a0,sp,16
800015fc:	0808                	addi	a0,sp,16
800015fe:	0808                	addi	a0,sp,16
80001600:	0808                	addi	a0,sp,16
80001602:	0808                	addi	a0,sp,16
80001604:	0808                	addi	a0,sp,16
80001606:	0808                	addi	a0,sp,16
80001608:	0808                	addi	a0,sp,16
8000160a:	0808                	addi	a0,sp,16
8000160c:	0808                	addi	a0,sp,16
8000160e:	0808                	addi	a0,sp,16
80001610:	0808                	addi	a0,sp,16
80001612:	0808                	addi	a0,sp,16
80001614:	0808                	addi	a0,sp,16
80001616:	0808                	addi	a0,sp,16
80001618:	0808                	addi	a0,sp,16
8000161a:	0808                	addi	a0,sp,16
8000161c:	0808                	addi	a0,sp,16
8000161e:	0808                	addi	a0,sp,16
80001620:	0808                	addi	a0,sp,16
80001622:	0808                	addi	a0,sp,16
80001624:	0808                	addi	a0,sp,16
80001626:	0808                	addi	a0,sp,16
80001628:	0808                	addi	a0,sp,16
8000162a:	0808                	addi	a0,sp,16
8000162c:	0808                	addi	a0,sp,16
8000162e:	0808                	addi	a0,sp,16
80001630:	0808                	addi	a0,sp,16
80001632:	0808                	addi	a0,sp,16
80001634:	0808                	addi	a0,sp,16
80001636:	0808                	addi	a0,sp,16
80001638:	0808                	addi	a0,sp,16
8000163a:	0808                	addi	a0,sp,16
8000163c:	0808                	addi	a0,sp,16
8000163e:	0808                	addi	a0,sp,16
80001640:	0808                	addi	a0,sp,16
80001642:	0808                	addi	a0,sp,16
80001644:	0808                	addi	a0,sp,16
80001646:	0808                	addi	a0,sp,16
80001648:	0808                	addi	a0,sp,16
8000164a:	0808                	addi	a0,sp,16
8000164c:	0808                	addi	a0,sp,16
8000164e:	0808                	addi	a0,sp,16
80001650:	0808                	addi	a0,sp,16
80001652:	0808                	addi	a0,sp,16
80001654:	0808                	addi	a0,sp,16
80001656:	0808                	addi	a0,sp,16

Disassembly of section .eh_frame:

80001658 <__EH_FRAME_BEGIN__>:
80001658:	0010                	0x10
8000165a:	0000                	unimp
8000165c:	0000                	unimp
8000165e:	0000                	unimp
80001660:	00527a03          	0x527a03
80001664:	7c01                	lui	s8,0xfffe0
80001666:	0101                	addi	sp,sp,0
80001668:	00020d1b          	0x20d1b
8000166c:	0020                	addi	s0,sp,8
8000166e:	0000                	unimp
80001670:	0018                	0x18
80001672:	0000                	unimp
80001674:	ee30                	fsw	fa2,88(a2)
80001676:	ffff                	0xffff
80001678:	03e0                	addi	s0,sp,460
8000167a:	0000                	unimp
8000167c:	6000                	flw	fs0,0(s0)
8000167e:	100e                	c.slli	zero,0x23
80001680:	884c                	0x884c
80001682:	0301                	addi	t1,t1,0
80001684:	01dc                	addi	a5,sp,196
80001686:	c80a                	sw	sp,16(sp)
80001688:	0e44                	addi	s1,sp,788
8000168a:	4400                	lw	s0,8(s0)
8000168c:	0000000b          	0xb
80001690:	0010                	0x10
80001692:	0000                	unimp
80001694:	003c                	addi	a5,sp,8
80001696:	0000                	unimp
80001698:	f1ec                	fsw	fa1,100(a1)
8000169a:	ffff                	0xffff
8000169c:	000c                	0xc
8000169e:	0000                	unimp
800016a0:	0000                	unimp
800016a2:	0000                	unimp
800016a4:	0010                	0x10
800016a6:	0000                	unimp
800016a8:	0050                	addi	a2,sp,4
800016aa:	0000                	unimp
800016ac:	f1e4                	fsw	fs1,100(a1)
800016ae:	ffff                	0xffff
800016b0:	0010                	0x10
800016b2:	0000                	unimp
800016b4:	0000                	unimp
800016b6:	0000                	unimp
800016b8:	0010                	0x10
800016ba:	0000                	unimp
800016bc:	0064                	addi	s1,sp,12
800016be:	0000                	unimp
800016c0:	f1e0                	fsw	fs0,100(a1)
800016c2:	ffff                	0xffff
800016c4:	0010                	0x10
800016c6:	0000                	unimp
800016c8:	0000                	unimp
800016ca:	0000                	unimp
800016cc:	0010                	0x10
800016ce:	0000                	unimp
800016d0:	0078                	addi	a4,sp,12
800016d2:	0000                	unimp
800016d4:	f1dc                	fsw	fa5,36(a1)
800016d6:	ffff                	0xffff
800016d8:	0014                	0x14
800016da:	0000                	unimp
800016dc:	0000                	unimp
800016de:	0000                	unimp
800016e0:	0010                	0x10
800016e2:	0000                	unimp
800016e4:	008c                	addi	a1,sp,64
800016e6:	0000                	unimp
800016e8:	f1dc                	fsw	fa5,36(a1)
800016ea:	ffff                	0xffff
800016ec:	0018                	0x18
800016ee:	0000                	unimp
800016f0:	0000                	unimp
800016f2:	0000                	unimp
800016f4:	0010                	0x10
800016f6:	0000                	unimp
800016f8:	00a0                	addi	s0,sp,72
800016fa:	0000                	unimp
800016fc:	f1e0                	fsw	fs0,100(a1)
800016fe:	ffff                	0xffff
80001700:	001c                	0x1c
80001702:	0000                	unimp
80001704:	0000                	unimp
80001706:	0000                	unimp
80001708:	0010                	0x10
8000170a:	0000                	unimp
8000170c:	00b4                	addi	a3,sp,72
8000170e:	0000                	unimp
80001710:	f1e8                	fsw	fa0,100(a1)
80001712:	ffff                	0xffff
80001714:	0020                	addi	s0,sp,8
80001716:	0000                	unimp
80001718:	0000                	unimp
8000171a:	0000                	unimp
8000171c:	0010                	0x10
8000171e:	0000                	unimp
80001720:	00c8                	addi	a0,sp,68
80001722:	0000                	unimp
80001724:	f1f4                	fsw	fa3,100(a1)
80001726:	ffff                	0xffff
80001728:	0024                	addi	s1,sp,8
8000172a:	0000                	unimp
8000172c:	0000                	unimp
8000172e:	0000                	unimp
80001730:	0010                	0x10
80001732:	0000                	unimp
80001734:	00dc                	addi	a5,sp,68
80001736:	0000                	unimp
80001738:	f204                	fsw	fs1,32(a2)
8000173a:	ffff                	0xffff
8000173c:	0028                	addi	a0,sp,8
8000173e:	0000                	unimp
80001740:	0000                	unimp
80001742:	0000                	unimp
80001744:	0010                	0x10
80001746:	0000                	unimp
80001748:	00f0                	addi	a2,sp,76
8000174a:	0000                	unimp
8000174c:	f218                	fsw	fa4,32(a2)
8000174e:	ffff                	0xffff
80001750:	0020                	addi	s0,sp,8
80001752:	0000                	unimp
80001754:	0000                	unimp
80001756:	0000                	unimp
80001758:	0010                	0x10
8000175a:	0000                	unimp
8000175c:	0104                	addi	s1,sp,128
8000175e:	0000                	unimp
80001760:	f224                	fsw	fs1,96(a2)
80001762:	ffff                	0xffff
80001764:	0028                	addi	a0,sp,8
80001766:	0000                	unimp
80001768:	0000                	unimp
8000176a:	0000                	unimp
8000176c:	0010                	0x10
8000176e:	0000                	unimp
80001770:	0118                	addi	a4,sp,128
80001772:	0000                	unimp
80001774:	f238                	fsw	fa4,96(a2)
80001776:	ffff                	0xffff
80001778:	0030                	addi	a2,sp,8
8000177a:	0000                	unimp
8000177c:	0000                	unimp
8000177e:	0000                	unimp
80001780:	0010                	0x10
80001782:	0000                	unimp
80001784:	012c                	addi	a1,sp,136
80001786:	0000                	unimp
80001788:	f254                	fsw	fa3,36(a2)
8000178a:	ffff                	0xffff
8000178c:	0038                	addi	a4,sp,8
8000178e:	0000                	unimp
80001790:	0000                	unimp
80001792:	0000                	unimp
80001794:	0010                	0x10
80001796:	0000                	unimp
80001798:	0140                	addi	s0,sp,132
8000179a:	0000                	unimp
8000179c:	f278                	fsw	fa4,100(a2)
8000179e:	ffff                	0xffff
800017a0:	0040                	addi	s0,sp,4
800017a2:	0000                	unimp
800017a4:	0000                	unimp
800017a6:	0000                	unimp
800017a8:	0010                	0x10
800017aa:	0000                	unimp
800017ac:	0154                	addi	a3,sp,132
800017ae:	0000                	unimp
800017b0:	f2a4                	fsw	fs1,96(a3)
800017b2:	ffff                	0xffff
800017b4:	0048                	addi	a0,sp,4
800017b6:	0000                	unimp
800017b8:	0000                	unimp
800017ba:	0000                	unimp
800017bc:	0010                	0x10
800017be:	0000                	unimp
800017c0:	0168                	addi	a0,sp,140
800017c2:	0000                	unimp
800017c4:	f2d8                	fsw	fa4,36(a3)
800017c6:	ffff                	0xffff
800017c8:	0030                	addi	a2,sp,8
800017ca:	0000                	unimp
800017cc:	0000                	unimp
800017ce:	0000                	unimp
800017d0:	0010                	0x10
800017d2:	0000                	unimp
800017d4:	017c                	addi	a5,sp,140
800017d6:	0000                	unimp
800017d8:	f2f4                	fsw	fa3,100(a3)
800017da:	ffff                	0xffff
800017dc:	0004                	0x4
800017de:	0000                	unimp
800017e0:	0000                	unimp
800017e2:	0000                	unimp
800017e4:	0010                	0x10
800017e6:	0000                	unimp
800017e8:	0190                	addi	a2,sp,192
800017ea:	0000                	unimp
800017ec:	f2e4                	fsw	fs1,100(a3)
800017ee:	ffff                	0xffff
800017f0:	0010                	0x10
800017f2:	0000                	unimp
800017f4:	0000                	unimp
800017f6:	0000                	unimp
800017f8:	0024                	addi	s1,sp,8
800017fa:	0000                	unimp
800017fc:	01a4                	addi	s1,sp,200
800017fe:	0000                	unimp
80001800:	f2e0                	fsw	fs0,100(a3)
80001802:	ffff                	0xffff
80001804:	006c                	addi	a1,sp,12
80001806:	0000                	unimp
80001808:	4c00                	lw	s0,24(s0)
8000180a:	200e                	fld	ft0,192(sp)
8000180c:	8944                	0x8944
8000180e:	01815803          	lhu	a6,24(sp)
80001812:	0288                	addi	a0,sp,320
80001814:	3402                	fld	fs0,32(sp)
80001816:	44c1                	li	s1,16
80001818:	44c8                	lw	a0,12(s1)
8000181a:	44c9                	li	s1,18
8000181c:	000e                	c.slli	zero,0x3
8000181e:	0000                	unimp
80001820:	0010                	0x10
80001822:	0000                	unimp
80001824:	01cc                	addi	a1,sp,196
80001826:	0000                	unimp
80001828:	f324                	fsw	fs1,96(a4)
8000182a:	ffff                	0xffff
8000182c:	004c                	addi	a1,sp,4
8000182e:	0000                	unimp
80001830:	0000                	unimp
80001832:	0000                	unimp
80001834:	0014                	0x14
80001836:	0000                	unimp
80001838:	01e0                	addi	s0,sp,204
8000183a:	0000                	unimp
8000183c:	f35c                	fsw	fa5,36(a4)
8000183e:	ffff                	0xffff
80001840:	003c                	addi	a5,sp,8
80001842:	0000                	unimp
80001844:	5000                	lw	s0,32(s0)
80001846:	100e                	c.slli	zero,0x23
80001848:	0e68                	addi	a0,sp,796
8000184a:	0000                	unimp
8000184c:	0010                	0x10
8000184e:	0000                	unimp
80001850:	01f8                	addi	a4,sp,204
80001852:	0000                	unimp
80001854:	f380                	fsw	fs0,32(a5)
80001856:	ffff                	0xffff
80001858:	0078                	addi	a4,sp,12
8000185a:	0000                	unimp
8000185c:	0000                	unimp
8000185e:	0000                	unimp
80001860:	0010                	0x10
80001862:	0000                	unimp
80001864:	020c                	addi	a1,sp,256
80001866:	0000                	unimp
80001868:	f3e4                	fsw	fs1,100(a5)
8000186a:	ffff                	0xffff
8000186c:	00e0                	addi	s0,sp,76
8000186e:	0000                	unimp
80001870:	0000                	unimp
80001872:	0000                	unimp
80001874:	0010                	0x10
80001876:	0000                	unimp
80001878:	0220                	addi	s0,sp,264
8000187a:	0000                	unimp
8000187c:	f4b0                	fsw	fa2,104(s1)
8000187e:	ffff                	0xffff
80001880:	002c                	addi	a1,sp,8
80001882:	0000                	unimp
80001884:	0000                	unimp
80001886:	0000                	unimp
80001888:	0044                	addi	s1,sp,4
8000188a:	0000                	unimp
8000188c:	0234                	addi	a3,sp,264
8000188e:	0000                	unimp
80001890:	f4c8                	fsw	fa0,44(s1)
80001892:	ffff                	0xffff
80001894:	0160                	addi	s0,sp,140
80001896:	0000                	unimp
80001898:	4400                	lw	s0,8(s0)
8000189a:	300e                	fld	ft0,224(sp)
8000189c:	9548                	0x9548
8000189e:	54089607          	flh	fa2,1344(a7)
800018a2:	0a980997          	auipc	s3,0xa980
800018a6:	8864                	0x8864
800018a8:	8902                	jr	s2
800018aa:	93049203          	lh	tp,-1744(s1)
800018ae:	9405                	srai	s0,s0,0x21
800018b0:	8106                	mv	sp,ra
800018b2:	9901                	andi	a0,a0,-32
800018b4:	c1cc020b          	0xc1cc020b
800018b8:	c844                	sw	s1,20(s0)
800018ba:	c964                	sw	s1,84(a0)
800018bc:	d244                	sw	s1,36(a2)
800018be:	d344                	sw	s1,36(a4)
800018c0:	d444                	sw	s1,44(s0)
800018c2:	d544                	sw	s1,44(a0)
800018c4:	d644                	sw	s1,44(a2)
800018c6:	d744                	sw	s1,44(a4)
800018c8:	d844                	sw	s1,52(s0)
800018ca:	d944                	sw	s1,52(a0)
800018cc:	0e44                	addi	s1,sp,788
800018ce:	0000                	unimp
800018d0:	002c                	addi	a1,sp,8
800018d2:	0000                	unimp
800018d4:	027c                	addi	a5,sp,268
800018d6:	0000                	unimp
800018d8:	e79c                	fsw	fa5,8(a5)
800018da:	ffff                	0xffff
800018dc:	0330                	addi	a2,sp,392
800018de:	0000                	unimp
800018e0:	4400                	lw	s0,8(s0)
800018e2:	600e                	flw	ft0,192(sp)
800018e4:	8174                	0x8174
800018e6:	8801                	andi	s0,s0,0
800018e8:	8902                	jr	s2
800018ea:	93049203          	lh	tp,-1744(s1)
800018ee:	9405                	srai	s0,s0,0x21
800018f0:	9506                	add	a0,a0,ra
800018f2:	97089607          	flh	fa2,-1680(a7)
800018f6:	9809                	andi	s0,s0,-30
800018f8:	990a                	add	s2,s2,sp
800018fa:	9b0c9a0b          	0x9b0c9a0b
800018fe:	000d                	c.nop	3

80001900 <__FRAME_END__>:
80001900:	0000                	unimp
	...

Disassembly of section .init_array:

80002904 <__init_array_start>:
80002904:	03a4                	addi	s1,sp,456
80002906:	8000                	0x8000

80002908 <__frame_dummy_init_array_entry>:
80002908:	0484                	addi	s1,sp,576
8000290a:	8000                	0x8000

Disassembly of section .fini_array:

8000290c <__do_global_dtors_aux_fini_array_entry>:
8000290c:	043c                	addi	a5,sp,520
8000290e:	8000                	0x8000

Disassembly of section .data:

c0000000 <impure_data>:
c0000000:	0000                	unimp
c0000002:	0000                	unimp
c0000004:	02ec                	addi	a1,sp,332
c0000006:	c000                	sw	s0,0(s0)
c0000008:	0354                	addi	a3,sp,388
c000000a:	c000                	sw	s0,0(s0)
c000000c:	03bc                	addi	a5,sp,456
c000000e:	c000                	sw	s0,0(s0)
	...
c00000a8:	0001                	nop
c00000aa:	0000                	unimp
c00000ac:	0000                	unimp
c00000ae:	0000                	unimp
c00000b0:	330e                	fld	ft6,224(sp)
c00000b2:	abcd                	j	c00006a4 <solution+0x230>
c00000b4:	1234                	addi	a3,sp,296
c00000b6:	e66d                	bnez	a2,c00001a0 <impure_data+0x1a0>
c00000b8:	deec                	sw	a1,124(a3)
c00000ba:	0005                	c.nop	1
c00000bc:	0000000b          	0xb
	...

Disassembly of section .sdata:

c0000428 <_global_impure_ptr>:
c0000428:	0000                	unimp
c000042a:	c000                	sw	s0,0(s0)

c000042c <_impure_ptr>:
c000042c:	0000                	unimp
c000042e:	c000                	sw	s0,0(s0)

Disassembly of section .sbss:

c0000430 <completed.1>:
c0000430:	0000                	unimp
	...

c0000434 <debug>:
c0000434:	0000                	unimp
	...

c0000438 <cnt>:
c0000438:	0000                	unimp
	...

c000043c <done>:
c000043c:	0000                	unimp
	...

c0000440 <goal>:
	...

c0000448 <start>:
	...

c0000450 <edge_neighbors>:
c0000450:	0000                	unimp
	...

c0000454 <edge_offset>:
c0000454:	0000                	unimp
	...

c0000458 <dist>:
c0000458:	0000                	unimp
	...

Disassembly of section .bss:

c000045c <object.0>:
	...

c0000474 <solution>:
	...

c0004c54 <map_info>:
	...

c0583054 <is_enq>:
	...

c05dae94 <visit>:
	...

c0632cd4 <mapp>:
	...

Disassembly of section .comment:

00000000 <.comment>:
   0:	3a434347          	fmsub.d	ft6,ft6,ft4,ft7,rmm
   4:	2820                	fld	fs0,80(s0)
   6:	5078                	lw	a4,100(s0)
   8:	6361                	lui	t1,0x18
   a:	4e47206b          	0x4e47206b
   e:	2055                	jal	b2 <main-0x7fffffc2>
  10:	4952                	lw	s2,20(sp)
  12:	562d4353          	0x562d4353
  16:	4520                	lw	s0,72(a0)
  18:	626d                	lui	tp,0x1b
  1a:	6465                	lui	s0,0x19
  1c:	6564                	flw	fs1,76(a0)
  1e:	2064                	fld	fs1,192(s0)
  20:	2c434347          	fmsub.h	ft6,ft6,ft4,ft5,rmm
  24:	3620                	fld	fs0,104(a2)
  26:	2d34                	fld	fa3,88(a0)
  28:	6962                	flw	fs2,24(sp)
  2a:	2974                	fld	fa3,208(a0)
  2c:	3120                	fld	fs0,96(a0)
  2e:	2e30                	fld	fa2,88(a2)
  30:	2e31                	jal	34c <main-0x7ffffd28>
  32:	0030                	addi	a2,sp,8

Disassembly of section .debug_frame:

00000000 <.debug_frame>:
   0:	000c                	0xc
   2:	0000                	unimp
   4:	ffff                	0xffff
   6:	ffff                	0xffff
   8:	7c010003          	lb	zero,1984(sp)
   c:	0d01                	addi	s10,s10,0
   e:	0002                	c.slli64	zero
  10:	000c                	0xc
  12:	0000                	unimp
  14:	0000                	unimp
  16:	0000                	unimp
  18:	0eb8                	addi	a4,sp,856
  1a:	8000                	0x8000
  1c:	006c                	addi	a1,sp,12
  1e:	0000                	unimp
  20:	000c                	0xc
  22:	0000                	unimp
  24:	ffff                	0xffff
  26:	ffff                	0xffff
  28:	7c010003          	lb	zero,1984(sp)
  2c:	0d01                	addi	s10,s10,0
  2e:	0002                	c.slli64	zero
  30:	0034                	addi	a3,sp,8
  32:	0000                	unimp
  34:	0020                	addi	s0,sp,8
  36:	0000                	unimp
  38:	0f24                	addi	s1,sp,920
  3a:	8000                	0x8000
  3c:	012c                	addi	a1,sp,136
  3e:	0000                	unimp
  40:	0e44                	addi	s1,sp,788
  42:	4810                	lw	a2,16(s0)
  44:	0181                	addi	gp,gp,0
  46:	0288                	addi	a0,sp,320
  48:	4402                	lw	s0,0(sp)
  4a:	c10a                	sw	sp,128(sp)
  4c:	c848                	sw	a0,20(s0)
  4e:	0e44                	addi	s1,sp,788
  50:	4400                	lw	s0,8(s0)
  52:	c10a500b          	0xc10a500b
  56:	c848                	sw	a0,20(s0)
  58:	0e44                	addi	s1,sp,788
  5a:	4400                	lw	s0,8(s0)
  5c:	0a7c020b          	0xa7c020b
  60:	48c1                	li	a7,16
  62:	44c8                	lw	a0,12(s1)
  64:	000e                	c.slli	zero,0x3
  66:	0b44                	addi	s1,sp,404
  68:	000c                	0xc
  6a:	0000                	unimp
  6c:	ffff                	0xffff
  6e:	ffff                	0xffff
  70:	7c010003          	lb	zero,1984(sp)
  74:	0d01                	addi	s10,s10,0
  76:	0002                	c.slli64	zero
  78:	000c                	0xc
  7a:	0000                	unimp
  7c:	0068                	addi	a0,sp,12
  7e:	0000                	unimp
  80:	1128                	addi	a0,sp,168
  82:	8000                	0x8000
  84:	0094                	addi	a3,sp,64
  86:	0000                	unimp
  88:	000c                	0xc
  8a:	0000                	unimp
  8c:	ffff                	0xffff
  8e:	ffff                	0xffff
  90:	7c010003          	lb	zero,1984(sp)
  94:	0d01                	addi	s10,s10,0
  96:	0002                	c.slli64	zero
  98:	0014                	0x14
  9a:	0000                	unimp
  9c:	0088                	addi	a0,sp,64
  9e:	0000                	unimp
  a0:	03bc                	addi	a5,sp,456
  a2:	8000                	0x8000
  a4:	0030                	addi	a2,sp,8
  a6:	0000                	unimp
  a8:	0e44                	addi	s1,sp,788
  aa:	4c10                	lw	a2,24(s0)
  ac:	0288                	addi	a0,sp,320
  ae:	0181                	addi	gp,gp,0
  b0:	000c                	0xc
  b2:	0000                	unimp
  b4:	ffff                	0xffff
  b6:	ffff                	0xffff
  b8:	7c010003          	lb	zero,1984(sp)
  bc:	0d01                	addi	s10,s10,0
  be:	0002                	c.slli64	zero
  c0:	0028                	addi	a0,sp,8
  c2:	0000                	unimp
  c4:	00b0                	addi	a2,sp,72
  c6:	0000                	unimp
  c8:	11bc                	addi	a5,sp,232
  ca:	8000                	0x8000
  cc:	0094                	addi	a3,sp,64
  ce:	0000                	unimp
  d0:	0e44                	addi	s1,sp,788
  d2:	4810                	lw	a2,16(s0)
  d4:	0288                	addi	a0,sp,320
  d6:	0492                	slli	s1,s1,0x4
  d8:	815c                	0x815c
  da:	8901                	andi	a0,a0,0
  dc:	c1580203          	lb	tp,-1003(a6)
  e0:	c844                	sw	s1,20(s0)
  e2:	c944                	sw	s1,20(a0)
  e4:	d244                	sw	s1,36(a2)
  e6:	0e44                	addi	s1,sp,788
  e8:	0000                	unimp
  ea:	0000                	unimp
  ec:	000c                	0xc
  ee:	0000                	unimp
  f0:	ffff                	0xffff
  f2:	ffff                	0xffff
  f4:	7c010003          	lb	zero,1984(sp)
  f8:	0d01                	addi	s10,s10,0
  fa:	0002                	c.slli64	zero
  fc:	000c                	0xc
  fe:	0000                	unimp
 100:	00ec                	addi	a1,sp,76
 102:	0000                	unimp
 104:	03a4                	addi	s1,sp,456
 106:	8000                	0x8000
 108:	0018                	0x18
 10a:	0000                	unimp
 10c:	0044                	addi	s1,sp,4
 10e:	0000                	unimp
 110:	00ec                	addi	a1,sp,76
 112:	0000                	unimp
 114:	132c                	addi	a1,sp,424
 116:	8000                	0x8000
 118:	0120                	addi	s0,sp,136
 11a:	0000                	unimp
 11c:	0e44                	addi	s1,sp,788
 11e:	4430                	lw	a2,72(s0)
 120:	0694                	addi	a3,sp,832
 122:	9248                	0x9248
 124:	6404                	flw	fs1,8(s0)
 126:	0181                	addi	gp,gp,0
 128:	0288                	addi	a0,sp,320
 12a:	0389                	addi	t2,t2,2
 12c:	07950593          	addi	a1,a0,121
 130:	0896                	slli	a7,a7,0x5
 132:	0a980997          	auipc	s3,0xa980
 136:	4402                	lw	s0,0(sp)
 138:	c10a                	sw	sp,128(sp)
 13a:	c844                	sw	s1,20(s0)
 13c:	c944                	sw	s1,20(a0)
 13e:	d244                	sw	s1,36(a2)
 140:	d344                	sw	s1,36(a4)
 142:	d444                	sw	s1,44(s0)
 144:	d544                	sw	s1,44(a0)
 146:	d644                	sw	s1,44(a2)
 148:	d744                	sw	s1,44(a4)
 14a:	d844                	sw	s1,52(s0)
 14c:	0e44                	addi	s1,sp,788
 14e:	4400                	lw	s0,8(s0)
 150:	0000000b          	0xb
 154:	000c                	0xc
 156:	0000                	unimp
 158:	ffff                	0xffff
 15a:	ffff                	0xffff
 15c:	7c010003          	lb	zero,1984(sp)
 160:	0d01                	addi	s10,s10,0
 162:	0002                	c.slli64	zero
 164:	0020                	addi	s0,sp,8
 166:	0000                	unimp
 168:	0154                	addi	a3,sp,132
 16a:	0000                	unimp
 16c:	144c                	addi	a1,sp,548
 16e:	8000                	0x8000
 170:	005c                	addi	a5,sp,4
 172:	0000                	unimp
 174:	0e44                	addi	s1,sp,788
 176:	4c10                	lw	a2,24(s0)
 178:	0288                	addi	a0,sp,320
 17a:	8954                	0x8954
 17c:	68018103          	lb	sp,1664(gp) # c0000e80 <__global_pointer$+0x680>
 180:	44c1                	li	s1,16
 182:	44c8                	lw	a0,12(s1)
 184:	44c9                	li	s1,18
 186:	000e                	c.slli	zero,0x3
 188:	000c                	0xc
 18a:	0000                	unimp
 18c:	ffff                	0xffff
 18e:	ffff                	0xffff
 190:	7c010003          	lb	zero,1984(sp)
 194:	0d01                	addi	s10,s10,0
 196:	0002                	c.slli64	zero
 198:	000c                	0xc
 19a:	0000                	unimp
 19c:	0188                	addi	a0,sp,192
 19e:	0000                	unimp
 1a0:	14a8                	addi	a0,sp,616
 1a2:	8000                	0x8000
 1a4:	0014                	0x14
 1a6:	0000                	unimp
 1a8:	000c                	0xc
 1aa:	0000                	unimp
 1ac:	ffff                	0xffff
 1ae:	ffff                	0xffff
 1b0:	7c010003          	lb	zero,1984(sp)
 1b4:	0d01                	addi	s10,s10,0
 1b6:	0002                	c.slli64	zero
 1b8:	000c                	0xc
 1ba:	0000                	unimp
 1bc:	01a8                	addi	a0,sp,200
 1be:	0000                	unimp
 1c0:	14bc                	addi	a5,sp,616
 1c2:	8000                	0x8000
 1c4:	0098                	addi	a4,sp,64
 1c6:	0000                	unimp
 1c8:	000c                	0xc
 1ca:	0000                	unimp
 1cc:	ffff                	0xffff
 1ce:	ffff                	0xffff
 1d0:	7c010003          	lb	zero,1984(sp)
 1d4:	0d01                	addi	s10,s10,0
 1d6:	0002                	c.slli64	zero
 1d8:	000c                	0xc
 1da:	0000                	unimp
 1dc:	01c8                	addi	a0,sp,196
 1de:	0000                	unimp
 1e0:	1554                	addi	a3,sp,676
 1e2:	8000                	0x8000
 1e4:	0004                	0x4
	...
